# SymbolsHelper-Confirmed: 6.6.0 amd64
libQt6QuickControls2.so.6 libqt6quickcontrols2-6 #MINVER#
| libqt6quickcontrols2-6 #MINVER#, qt6-declarative-private-abi (= 6.8.0)
* Build-Depends-Packages: qt6-declarative-dev, qt6-declarative-private-dev
 Qt_6@Qt_6 6.6.0
 (symver)Qt_6_PRIVATE_API 0
 _Z35qml_register_types_QtQuick_Controlsv@Qt_6 6.6.0
 _ZN11QQuickStyle16setFallbackStyleERK7QString@Qt_6 6.6.0
 _ZN11QQuickStyle4nameEv@Qt_6 6.6.0
 _ZN11QQuickStyle8setStyleERK7QString@Qt_6 6.6.0
 _ZN32QQuickAttachedPropertyPropagator10initializeEv@Qt_6 6.6.0
 _ZN32QQuickAttachedPropertyPropagator11qt_metacallEN11QMetaObject4CallEiPPv@Qt_6 6.6.0
 _ZN32QQuickAttachedPropertyPropagator11qt_metacastEPKc@Qt_6 6.6.0
 _ZN32QQuickAttachedPropertyPropagator16staticMetaObjectE@Qt_6 6.6.0
 _ZN32QQuickAttachedPropertyPropagator20attachedParentChangeEPS_S0_@Qt_6 6.6.0
 _ZN32QQuickAttachedPropertyPropagatorC1EP7QObject@Qt_6 6.6.0
 _ZN32QQuickAttachedPropertyPropagatorC2EP7QObject@Qt_6 6.6.0
 _ZN32QQuickAttachedPropertyPropagatorD0Ev@Qt_6 6.6.0
 _ZN32QQuickAttachedPropertyPropagatorD1Ev@Qt_6 6.6.0
 _ZN32QQuickAttachedPropertyPropagatorD2Ev@Qt_6 6.6.0
 _ZNK32QQuickAttachedPropertyPropagator10metaObjectEv@Qt_6 6.6.0
 _ZNK32QQuickAttachedPropertyPropagator14attachedParentEv@Qt_6 6.6.0
 _ZNK32QQuickAttachedPropertyPropagator16attachedChildrenEv@Qt_6 6.6.0
 _ZTI32QQuickAttachedPropertyPropagator@Qt_6 6.6.0
 _ZTS32QQuickAttachedPropertyPropagator@Qt_6 6.6.0
 _ZTV32QQuickAttachedPropertyPropagator@Qt_6 6.6.0
