# SymbolsHelper-Confirmed: 6.6.0 amd64
libQt6QmlModels.so.6 libqt6qmlmodels6 #MINVER#
| libqt6qmlmodels6 #MINVER#, qt6-declarative-private-abi (= 6.8.0)
* Build-Depends-Packages: qt6-declarative-dev, qt6-declarative-private-dev
 Qt_6@Qt_6 6.6.0
 (symver)Qt_6_PRIVATE_API 0
 _Z31qml_register_types_QtQml_Modelsv@Qt_6 6.6.0
 _ZGVZN9QMetaType21registerConverterImplI5QListI19QItemSelectionRangeE9QIterableI13QMetaSequenceEEEbSt8functionIFbPKvPvEES_S_E10unregister@Qt_6 6.6.0
 _ZGVZN9QMetaType21registerConverterImplI5QListI21QPersistentModelIndexE9QIterableI13QMetaSequenceEEEbSt8functionIFbPKvPvEES_S_E10unregister@Qt_6 6.6.0
 _ZGVZN9QMetaType21registerConverterImplI5QListI4QUrlE9QIterableI13QMetaSequenceEEEbSt8functionIFbPKvPvEES_S_E10unregister@Qt_6 6.6.0
 _ZGVZN9QMetaType21registerConverterImplI5QListIP7QObjectE9QIterableI13QMetaSequenceEEEbSt8functionIFbPKvPvEES_S_E10unregister@Qt_6 6.6.0
 _ZGVZN9QMetaType21registerConverterImplI5QListIiE9QIterableI13QMetaSequenceEEEbSt8functionIFbPKvPvEES_S_E10unregister@Qt_6 6.6.0
 _ZGVZN9QMetaType21registerConverterImplISt6vectorI11QModelIndexSaIS2_EE9QIterableI13QMetaSequenceEEEbSt8functionIFbPKvPvEES_S_E10unregister@Qt_6 6.6.0
 _ZGVZN9QMetaType23registerMutableViewImplI5QListI19QItemSelectionRangeE9QIterableI13QMetaSequenceEEEbSt8functionIFbPvS8_EES_S_E10unregister@Qt_6 6.6.0
 _ZGVZN9QMetaType23registerMutableViewImplI5QListI21QPersistentModelIndexE9QIterableI13QMetaSequenceEEEbSt8functionIFbPvS8_EES_S_E10unregister@Qt_6 6.6.0
 _ZGVZN9QMetaType23registerMutableViewImplI5QListI4QUrlE9QIterableI13QMetaSequenceEEEbSt8functionIFbPvS8_EES_S_E10unregister@Qt_6 6.6.0
 _ZGVZN9QMetaType23registerMutableViewImplI5QListIP7QObjectE9QIterableI13QMetaSequenceEEEbSt8functionIFbPvS9_EES_S_E10unregister@Qt_6 6.6.0
 _ZGVZN9QMetaType23registerMutableViewImplI5QListIiE9QIterableI13QMetaSequenceEEEbSt8functionIFbPvS7_EES_S_E10unregister@Qt_6 6.6.0
 _ZGVZN9QMetaType23registerMutableViewImplISt6vectorI11QModelIndexSaIS2_EE9QIterableI13QMetaSequenceEEEbSt8functionIFbPvS9_EES_S_E10unregister@Qt_6 6.6.0
 _ZN13QMetaSequence12MetaSequenceI14QItemSelectionE5valueE@Qt_6 6.6.0
 _ZN13QMetaSequence12MetaSequenceI5QListI11QModelIndexEE5valueE@Qt_6 6.6.0
 _ZN13QMetaSequence12MetaSequenceI5QListI19QItemSelectionRangeEE5valueE@Qt_6 6.6.0
 _ZN13QMetaSequence12MetaSequenceI5QListI21QPersistentModelIndexEE5valueE@Qt_6 6.6.0
 _ZN13QMetaSequence12MetaSequenceI5QListI4QUrlEE5valueE@Qt_6 6.6.0
 _ZN13QMetaSequence12MetaSequenceI5QListIP7QObjectEE5valueE@Qt_6 6.6.0
 _ZN13QMetaSequence12MetaSequenceI5QListIiEE5valueE@Qt_6 6.6.0
 _ZN13QMetaSequence12MetaSequenceISt6vectorI11QModelIndexSaIS2_EEE5valueE@Qt_6 6.6.0
 _ZTI12QQmlRefCount@Qt_6 6.6.0
 _ZTI16QQmlCustomParser@Qt_6 6.6.0
 _ZTIN3QV415ExecutionEngine9DeletableE@Qt_6 6.6.0
 _ZTIZN9QMetaType17registerConverterI5QListI19QItemSelectionRangeE9QIterableI13QMetaSequenceEN9QtPrivate33QSequentialIterableConvertFunctorIS3_EEEEbT1_EUlPKvPvE_@Qt_6 6.6.0
 _ZTIZN9QMetaType17registerConverterI5QListI21QPersistentModelIndexE9QIterableI13QMetaSequenceEN9QtPrivate33QSequentialIterableConvertFunctorIS3_EEEEbT1_EUlPKvPvE_@Qt_6 6.6.0
 _ZTIZN9QMetaType17registerConverterI5QListI4QUrlE9QIterableI13QMetaSequenceEN9QtPrivate33QSequentialIterableConvertFunctorIS3_EEEEbT1_EUlPKvPvE_@Qt_6 6.6.0
 _ZTIZN9QMetaType17registerConverterI5QListIP7QObjectE9QIterableI13QMetaSequenceEN9QtPrivate33QSequentialIterableConvertFunctorIS4_EEEEbT1_EUlPKvPvE_@Qt_6 6.6.0
 _ZTIZN9QMetaType17registerConverterI5QListIiE9QIterableI13QMetaSequenceEN9QtPrivate33QSequentialIterableConvertFunctorIS2_EEEEbT1_EUlPKvPvE_@Qt_6 6.6.0
 _ZTIZN9QMetaType17registerConverterISt6vectorI11QModelIndexSaIS2_EE9QIterableI13QMetaSequenceEN9QtPrivate33QSequentialIterableConvertFunctorIS4_EEEEbT1_EUlPKvPvE_@Qt_6 6.6.0
 _ZTIZN9QMetaType19registerMutableViewI5QListI19QItemSelectionRangeE9QIterableI13QMetaSequenceEN9QtPrivate37QSequentialIterableMutableViewFunctorIS3_EEEEbT1_EUlPvSB_E_@Qt_6 6.6.0
 _ZTIZN9QMetaType19registerMutableViewI5QListI21QPersistentModelIndexE9QIterableI13QMetaSequenceEN9QtPrivate37QSequentialIterableMutableViewFunctorIS3_EEEEbT1_EUlPvSB_E_@Qt_6 6.6.0
 _ZTIZN9QMetaType19registerMutableViewI5QListI4QUrlE9QIterableI13QMetaSequenceEN9QtPrivate37QSequentialIterableMutableViewFunctorIS3_EEEEbT1_EUlPvSB_E_@Qt_6 6.6.0
 _ZTIZN9QMetaType19registerMutableViewI5QListIP7QObjectE9QIterableI13QMetaSequenceEN9QtPrivate37QSequentialIterableMutableViewFunctorIS4_EEEEbT1_EUlPvSC_E_@Qt_6 6.6.0
 _ZTIZN9QMetaType19registerMutableViewI5QListIiE9QIterableI13QMetaSequenceEN9QtPrivate37QSequentialIterableMutableViewFunctorIS2_EEEEbT1_EUlPvSA_E_@Qt_6 6.6.0
 _ZTIZN9QMetaType19registerMutableViewISt6vectorI11QModelIndexSaIS2_EE9QIterableI13QMetaSequenceEN9QtPrivate37QSequentialIterableMutableViewFunctorIS4_EEEEbT1_EUlPvSC_E_@Qt_6 6.6.0
 _ZTS12QQmlRefCount@Qt_6 6.6.0
 _ZTS16QQmlCustomParser@Qt_6 6.6.0
 _ZTSN3QV415ExecutionEngine9DeletableE@Qt_6 6.6.0
 _ZTSZN9QMetaType17registerConverterI5QListI19QItemSelectionRangeE9QIterableI13QMetaSequenceEN9QtPrivate33QSequentialIterableConvertFunctorIS3_EEEEbT1_EUlPKvPvE_@Qt_6 6.6.0
 _ZTSZN9QMetaType17registerConverterI5QListI21QPersistentModelIndexE9QIterableI13QMetaSequenceEN9QtPrivate33QSequentialIterableConvertFunctorIS3_EEEEbT1_EUlPKvPvE_@Qt_6 6.6.0
 _ZTSZN9QMetaType17registerConverterI5QListI4QUrlE9QIterableI13QMetaSequenceEN9QtPrivate33QSequentialIterableConvertFunctorIS3_EEEEbT1_EUlPKvPvE_@Qt_6 6.6.0
 _ZTSZN9QMetaType17registerConverterI5QListIP7QObjectE9QIterableI13QMetaSequenceEN9QtPrivate33QSequentialIterableConvertFunctorIS4_EEEEbT1_EUlPKvPvE_@Qt_6 6.6.0
 _ZTSZN9QMetaType17registerConverterI5QListIiE9QIterableI13QMetaSequenceEN9QtPrivate33QSequentialIterableConvertFunctorIS2_EEEEbT1_EUlPKvPvE_@Qt_6 6.6.0
 _ZTSZN9QMetaType17registerConverterISt6vectorI11QModelIndexSaIS2_EE9QIterableI13QMetaSequenceEN9QtPrivate33QSequentialIterableConvertFunctorIS4_EEEEbT1_EUlPKvPvE_@Qt_6 6.6.0
 _ZTSZN9QMetaType19registerMutableViewI5QListI19QItemSelectionRangeE9QIterableI13QMetaSequenceEN9QtPrivate37QSequentialIterableMutableViewFunctorIS3_EEEEbT1_EUlPvSB_E_@Qt_6 6.6.0
 _ZTSZN9QMetaType19registerMutableViewI5QListI21QPersistentModelIndexE9QIterableI13QMetaSequenceEN9QtPrivate37QSequentialIterableMutableViewFunctorIS3_EEEEbT1_EUlPvSB_E_@Qt_6 6.6.0
 _ZTSZN9QMetaType19registerMutableViewI5QListI4QUrlE9QIterableI13QMetaSequenceEN9QtPrivate37QSequentialIterableMutableViewFunctorIS3_EEEEbT1_EUlPvSB_E_@Qt_6 6.6.0
 _ZTSZN9QMetaType19registerMutableViewI5QListIP7QObjectE9QIterableI13QMetaSequenceEN9QtPrivate37QSequentialIterableMutableViewFunctorIS4_EEEEbT1_EUlPvSC_E_@Qt_6 6.6.0
 _ZTSZN9QMetaType19registerMutableViewI5QListIiE9QIterableI13QMetaSequenceEN9QtPrivate37QSequentialIterableMutableViewFunctorIS2_EEEEbT1_EUlPvSA_E_@Qt_6 6.6.0
 _ZTSZN9QMetaType19registerMutableViewISt6vectorI11QModelIndexSaIS2_EE9QIterableI13QMetaSequenceEN9QtPrivate37QSequentialIterableMutableViewFunctorIS4_EEEEbT1_EUlPvSC_E_@Qt_6 6.6.0
 (optional=templinst)_ZZN9QMetaType21registerConverterImplI5QListI19QItemSelectionRangeE9QIterableI13QMetaSequenceEEEbSt8functionIFbPKvPvEES_S_E10unregister@Qt_6 6.6.0
 (optional=templinst)_ZZN9QMetaType21registerConverterImplI5QListI21QPersistentModelIndexE9QIterableI13QMetaSequenceEEEbSt8functionIFbPKvPvEES_S_E10unregister@Qt_6 6.6.0
 (optional=templinst)_ZZN9QMetaType21registerConverterImplI5QListI4QUrlE9QIterableI13QMetaSequenceEEEbSt8functionIFbPKvPvEES_S_E10unregister@Qt_6 6.6.0
 (optional=templinst)_ZZN9QMetaType21registerConverterImplI5QListIP7QObjectE9QIterableI13QMetaSequenceEEEbSt8functionIFbPKvPvEES_S_E10unregister@Qt_6 6.6.0
 (optional=templinst)_ZZN9QMetaType21registerConverterImplI5QListIiE9QIterableI13QMetaSequenceEEEbSt8functionIFbPKvPvEES_S_E10unregister@Qt_6 6.6.0
 (optional=templinst)_ZZN9QMetaType21registerConverterImplISt6vectorI11QModelIndexSaIS2_EE9QIterableI13QMetaSequenceEEEbSt8functionIFbPKvPvEES_S_E10unregister@Qt_6 6.6.0
 (optional=templinst)_ZZN9QMetaType23registerMutableViewImplI5QListI19QItemSelectionRangeE9QIterableI13QMetaSequenceEEEbSt8functionIFbPvS8_EES_S_E10unregister@Qt_6 6.6.0
 (optional=templinst)_ZZN9QMetaType23registerMutableViewImplI5QListI21QPersistentModelIndexE9QIterableI13QMetaSequenceEEEbSt8functionIFbPvS8_EES_S_E10unregister@Qt_6 6.6.0
 (optional=templinst)_ZZN9QMetaType23registerMutableViewImplI5QListI4QUrlE9QIterableI13QMetaSequenceEEEbSt8functionIFbPvS8_EES_S_E10unregister@Qt_6 6.6.0
 (optional=templinst)_ZZN9QMetaType23registerMutableViewImplI5QListIP7QObjectE9QIterableI13QMetaSequenceEEEbSt8functionIFbPvS9_EES_S_E10unregister@Qt_6 6.6.0
 (optional=templinst)_ZZN9QMetaType23registerMutableViewImplI5QListIiE9QIterableI13QMetaSequenceEEEbSt8functionIFbPvS7_EES_S_E10unregister@Qt_6 6.6.0
 (optional=templinst)_ZZN9QMetaType23registerMutableViewImplISt6vectorI11QModelIndexSaIS2_EE9QIterableI13QMetaSequenceEEEbSt8functionIFbPvS9_EES_S_E10unregister@Qt_6 6.6.0
