# SymbolsHelper-Confirmed: 6.6.0 amd64 arm64 armel armhf hppa i386 loong64 powerpc ppc64 ppc64el riscv64 s390x
libQt6Quick.so.6 libqt6quick6 #MINVER#
| libqt6quick6 #MINVER#, qt6-declarative-private-abi (= 6.6.0)
* Build-Depends-Packages: qt6-declarative-dev, qt6-declarative-private-dev
 Qt_6@Qt_6 6.6.0
 (symver)Qt_6_PRIVATE_API 0
 _Z20qt_color_from_stringRKN3QV45ValueE@Qt_6 6.6.0
 _Z23QQuick_initializeModulev@Qt_6 6.6.0
 _Z23qsgnode_set_descriptionP7QSGNodeRK7QString@Qt_6 6.6.0
 _Z23qtPositionAttributeNamev@Qt_6 6.6.0
 _Z23qtTexCoordAttributeNamev@Qt_6 6.6.0
 _Z26qml_register_types_QtQuickv@Qt_6 6.6.0
 _Z33qt_quick_shortcut_context_matcherv@Qt_6 6.6.0
 _Z37qt_quick_set_shortcut_context_matcherPFbP7QObjectN2Qt15ShortcutContextEE@Qt_6 6.6.0
 _ZGVZN9QMetaType21registerConverterImplI5QListI10QMatrix4x4E9QIterableI13QMetaSequenceEEEbSt8functionIFbPKvPvEES_S_E10unregister@Qt_6 6.6.0
 _ZGVZN9QMetaType21registerConverterImplI5QListI11QColorSpaceE9QIterableI13QMetaSequenceEEEbSt8functionIFbPKvPvEES_S_E10unregister@Qt_6 6.6.0
 _ZGVZN9QMetaType21registerConverterImplI5QListI11QEventPointE9QIterableI13QMetaSequenceEEEbSt8functionIFbPKvPvEES_S_E10unregister@Qt_6 6.6.0
 _ZGVZN9QMetaType21registerConverterImplI5QListI11QQuaternionE9QIterableI13QMetaSequenceEEEbSt8functionIFbPKvPvEES_S_E10unregister@Qt_6 6.6.0
 _ZGVZN9QMetaType21registerConverterImplI5QListI23QPointingDeviceUniqueIdE9QIterableI13QMetaSequenceEEEbSt8functionIFbPKvPvEES_S_E10unregister@Qt_6 6.6.0
 _ZGVZN9QMetaType21registerConverterImplI5QListI4QUrlE9QIterableI13QMetaSequenceEEEbSt8functionIFbPKvPvEES_S_E10unregister@Qt_6 6.6.0
 _ZGVZN9QMetaType21registerConverterImplI5QListI5QFontE9QIterableI13QMetaSequenceEEEbSt8functionIFbPKvPvEES_S_E10unregister@Qt_6 6.6.0
 _ZGVZN9QMetaType21registerConverterImplI5QListI6QColorE9QIterableI13QMetaSequenceEEEbSt8functionIFbPKvPvEES_S_E10unregister@Qt_6 6.6.0
 _ZGVZN9QMetaType21registerConverterImplI5QListI6QImageE9QIterableI13QMetaSequenceEEEbSt8functionIFbPKvPvEES_S_E10unregister@Qt_6 6.6.0
 _ZGVZN9QMetaType21registerConverterImplI5QListI7QPointFE9QIterableI13QMetaSequenceEEEbSt8functionIFbPKvPvEES_S_E10unregister@Qt_6 6.6.0
 _ZGVZN9QMetaType21registerConverterImplI5QListI9QPolygonFE9QIterableI13QMetaSequenceEEEbSt8functionIFbPKvPvEES_S_E10unregister@Qt_6 6.6.0
 _ZGVZN9QMetaType21registerConverterImplI5QListI9QVector2DE9QIterableI13QMetaSequenceEEEbSt8functionIFbPKvPvEES_S_E10unregister@Qt_6 6.6.0
 _ZGVZN9QMetaType21registerConverterImplI5QListI9QVector3DE9QIterableI13QMetaSequenceEEEbSt8functionIFbPKvPvEES_S_E10unregister@Qt_6 6.6.0
 _ZGVZN9QMetaType21registerConverterImplI5QListI9QVector4DE9QIterableI13QMetaSequenceEEEbSt8functionIFbPKvPvEES_S_E10unregister@Qt_6 6.6.0
 _ZGVZN9QMetaType21registerConverterImplI5QListIP7QObjectE9QIterableI13QMetaSequenceEEEbSt8functionIFbPKvPvEES_S_E10unregister@Qt_6 6.6.0
 _ZGVZN9QMetaType21registerConverterImplI5QListIS1_I7QPointFEE9QIterableI13QMetaSequenceEEEbSt8functionIFbPKvPvEES_S_E10unregister@Qt_6 6.6.0
 _ZGVZN9QMetaType21registerConverterImplI5QListIiE9QIterableI13QMetaSequenceEEEbSt8functionIFbPKvPvEES_S_E10unregister@Qt_6 6.6.0
 _ZGVZN9QMetaType23registerMutableViewImplI5QListI10QMatrix4x4E9QIterableI13QMetaSequenceEEEbSt8functionIFbPvS8_EES_S_E10unregister@Qt_6 6.6.0
 _ZGVZN9QMetaType23registerMutableViewImplI5QListI11QColorSpaceE9QIterableI13QMetaSequenceEEEbSt8functionIFbPvS8_EES_S_E10unregister@Qt_6 6.6.0
 _ZGVZN9QMetaType23registerMutableViewImplI5QListI11QEventPointE9QIterableI13QMetaSequenceEEEbSt8functionIFbPvS8_EES_S_E10unregister@Qt_6 6.6.0
 _ZGVZN9QMetaType23registerMutableViewImplI5QListI11QQuaternionE9QIterableI13QMetaSequenceEEEbSt8functionIFbPvS8_EES_S_E10unregister@Qt_6 6.6.0
 _ZGVZN9QMetaType23registerMutableViewImplI5QListI23QPointingDeviceUniqueIdE9QIterableI13QMetaSequenceEEEbSt8functionIFbPvS8_EES_S_E10unregister@Qt_6 6.6.0
 _ZGVZN9QMetaType23registerMutableViewImplI5QListI4QUrlE9QIterableI13QMetaSequenceEEEbSt8functionIFbPvS8_EES_S_E10unregister@Qt_6 6.6.0
 _ZGVZN9QMetaType23registerMutableViewImplI5QListI5QFontE9QIterableI13QMetaSequenceEEEbSt8functionIFbPvS8_EES_S_E10unregister@Qt_6 6.6.0
 _ZGVZN9QMetaType23registerMutableViewImplI5QListI6QColorE9QIterableI13QMetaSequenceEEEbSt8functionIFbPvS8_EES_S_E10unregister@Qt_6 6.6.0
 _ZGVZN9QMetaType23registerMutableViewImplI5QListI6QImageE9QIterableI13QMetaSequenceEEEbSt8functionIFbPvS8_EES_S_E10unregister@Qt_6 6.6.0
 _ZGVZN9QMetaType23registerMutableViewImplI5QListI7QPointFE9QIterableI13QMetaSequenceEEEbSt8functionIFbPvS8_EES_S_E10unregister@Qt_6 6.6.0
 _ZGVZN9QMetaType23registerMutableViewImplI5QListI9QPolygonFE9QIterableI13QMetaSequenceEEEbSt8functionIFbPvS8_EES_S_E10unregister@Qt_6 6.6.0
 _ZGVZN9QMetaType23registerMutableViewImplI5QListI9QVector2DE9QIterableI13QMetaSequenceEEEbSt8functionIFbPvS8_EES_S_E10unregister@Qt_6 6.6.0
 _ZGVZN9QMetaType23registerMutableViewImplI5QListI9QVector3DE9QIterableI13QMetaSequenceEEEbSt8functionIFbPvS8_EES_S_E10unregister@Qt_6 6.6.0
 _ZGVZN9QMetaType23registerMutableViewImplI5QListI9QVector4DE9QIterableI13QMetaSequenceEEEbSt8functionIFbPvS8_EES_S_E10unregister@Qt_6 6.6.0
 _ZGVZN9QMetaType23registerMutableViewImplI5QListIP7QObjectE9QIterableI13QMetaSequenceEEEbSt8functionIFbPvS9_EES_S_E10unregister@Qt_6 6.6.0
 _ZGVZN9QMetaType23registerMutableViewImplI5QListIS1_I7QPointFEE9QIterableI13QMetaSequenceEEEbSt8functionIFbPvS9_EES_S_E10unregister@Qt_6 6.6.0
 _ZGVZN9QMetaType23registerMutableViewImplI5QListIiE9QIterableI13QMetaSequenceEEEbSt8functionIFbPvS7_EES_S_E10unregister@Qt_6 6.6.0
 _ZN10QQuickItem10classBeginEv@Qt_6 6.6.0
 _ZN10QQuickItem10itemChangeENS_10ItemChangeERKNS_14ItemChangeDataE@Qt_6 6.6.0
 _ZN10QQuickItem10resetWidthEv@Qt_6 6.6.0
 _ZN10QQuickItem10setEnabledEb@Qt_6 6.6.0
 _ZN10QQuickItem10setOpacityEd@Qt_6 6.6.0
 _ZN10QQuickItem10setVisibleEb@Qt_6 6.6.0
 _ZN10QQuickItem10stackAfterEPKS_@Qt_6 6.6.0
 _ZN10QQuickItem10touchEventEP11QTouchEvent@Qt_6 6.6.0
 _ZN10QQuickItem10wheelEventEP11QWheelEvent@Qt_6 6.6.0
 _ZN10QQuickItem11clipChangedEb@Qt_6 6.6.0
 _ZN10QQuickItem11grabToImageERK5QSize@Qt_6 6.6.0
 _ZN10QQuickItem11grabToImageERK8QJSValueRK5QSize@Qt_6 6.6.0
 _ZN10QQuickItem11mapFromItemEPKS_dd@Qt_6 6.6.0
 _ZN10QQuickItem11qt_metacallEN11QMetaObject4CallEiPPv@Qt_6 6.6.0
 _ZN10QQuickItem11qt_metacastEPKc@Qt_6 6.6.0
 _ZN10QQuickItem11resetHeightEv@Qt_6 6.6.0
 _ZN10QQuickItem11setPositionERK7QPointF@Qt_6 6.6.0
 _ZN10QQuickItem11setRotationEd@Qt_6 6.6.0
 _ZN10QQuickItem11stackBeforeEPKS_@Qt_6 6.6.0
 _ZN10QQuickItem11ungrabMouseEv@Qt_6 6.6.0
 _ZN10QQuickItem11unsetCursorEv@Qt_6 6.6.0
 _ZN10QQuickItem12childrenRectEv@Qt_6 6.6.0
 _ZN10QQuickItem12focusChangedEb@Qt_6 6.6.0
 _ZN10QQuickItem12focusInEventEP11QFocusEvent@Qt_6 6.6.0
 _ZN10QQuickItem12scaleChangedEv@Qt_6 6.6.0
 _ZN10QQuickItem12stateChangedERK7QString@Qt_6 6.6.0
 _ZN10QQuickItem12updatePolishEv@Qt_6 6.6.0
 _ZN10QQuickItem12widthChangedEv@Qt_6 6.6.0
 _ZN10QQuickItem13bindableWidthEv@Qt_6 6.6.0
 _ZN10QQuickItem13dragMoveEventEP14QDragMoveEvent@Qt_6 6.6.0
 _ZN10QQuickItem13focusOutEventEP11QFocusEvent@Qt_6 6.6.0
 _ZN10QQuickItem13heightChangedEv@Qt_6 6.6.0
 _ZN10QQuickItem13keyPressEventEP9QKeyEvent@Qt_6 6.6.0
 _ZN10QQuickItem13parentChangedEPS_@Qt_6 6.6.0
 _ZN10QQuickItem13setParentItemEPS_@Qt_6 6.6.0
 _ZN10QQuickItem13smoothChangedEb@Qt_6 6.6.0
 _ZN10QQuickItem13windowChangedEP12QQuickWindow@Qt_6 6.6.0
 _ZN10QQuickItem14bindableHeightEv@Qt_6 6.6.0
 _ZN10QQuickItem14dragEnterEventEP15QDragEnterEvent@Qt_6 6.6.0
 _ZN10QQuickItem14dragLeaveEventEP15QDragLeaveEvent@Qt_6 6.6.0
 _ZN10QQuickItem14enabledChangedEv@Qt_6 6.6.0
 _ZN10QQuickItem14ensurePolishedEv@Qt_6 6.6.0
 _ZN10QQuickItem14geometryChangeERK6QRectFS2_@Qt_6 6.6.0
 _ZN10QQuickItem14hoverMoveEventEP11QHoverEvent@Qt_6 6.6.0
 _ZN10QQuickItem14mouseMoveEventEP11QMouseEvent@Qt_6 6.6.0
 _ZN10QQuickItem14opacityChangedEv@Qt_6 6.6.0
 _ZN10QQuickItem14paletteChangedEv@Qt_6 6.6.0
 _ZN10QQuickItem14paletteCreatedEv@Qt_6 6.6.0
 _ZN10QQuickItem14visibleChangedEv@Qt_6 6.6.0
 _ZN10QQuickItem15childrenChangedEv@Qt_6 6.6.0
 _ZN10QQuickItem15grabTouchPointsERK5QListIiE@Qt_6 6.6.0
 _ZN10QQuickItem15hoverEnterEventEP11QHoverEvent@Qt_6 6.6.0
 _ZN10QQuickItem15hoverLeaveEventEP11QHoverEvent@Qt_6 6.6.0
 _ZN10QQuickItem15keyReleaseEventEP9QKeyEvent@Qt_6 6.6.0
 _ZN10QQuickItem15mousePressEventEP11QMouseEvent@Qt_6 6.6.0
 _ZN10QQuickItem15rotationChangedEv@Qt_6 6.6.0
 _ZN10QQuickItem15setAntialiasingEb@Qt_6 6.6.0
 _ZN10QQuickItem15setImplicitSizeEdd@Qt_6 6.6.0
 _ZN10QQuickItem15updatePaintNodeEP7QSGNodePNS_19UpdatePaintNodeDataE@Qt_6 6.6.0
 _ZN10QQuickItem16forceActiveFocusEN2Qt11FocusReasonE@Qt_6 6.6.0
 _ZN10QQuickItem16forceActiveFocusEv@Qt_6 6.6.0
 _ZN10QQuickItem16inputMethodEventEP17QInputMethodEvent@Qt_6 6.6.0
 _ZN10QQuickItem16mouseUngrabEventEv@Qt_6 6.6.0
 _ZN10QQuickItem16releaseResourcesEv@Qt_6 6.6.0
 _ZN10QQuickItem16setImplicitWidthEd@Qt_6 6.6.0
 _ZN10QQuickItem16setKeepMouseGrabEb@Qt_6 6.6.0
 _ZN10QQuickItem16setKeepTouchGrabEb@Qt_6 6.6.0
 _ZN10QQuickItem16staticMetaObjectE@Qt_6 6.6.0
 _ZN10QQuickItem16touchUngrabEventEv@Qt_6 6.6.0
 _ZN10QQuickItem17componentCompleteEv@Qt_6 6.6.0
 _ZN10QQuickItem17mouseReleaseEventEP11QMouseEvent@Qt_6 6.6.0
 _ZN10QQuickItem17resetAntialiasingEv@Qt_6 6.6.0
 _ZN10QQuickItem17setBaselineOffsetEd@Qt_6 6.6.0
 _ZN10QQuickItem17setImplicitHeightEd@Qt_6 6.6.0
 _ZN10QQuickItem17ungrabTouchPointsEv@Qt_6 6.6.0
 _ZN10QQuickItem17updateInputMethodE6QFlagsIN2Qt16InputMethodQueryEE@Qt_6 6.6.0
 _ZN10QQuickItem18activeFocusChangedEb@Qt_6 6.6.0
 _ZN10QQuickItem18setContainmentMaskEP7QObject@Qt_6 6.6.0
 _ZN10QQuickItem18setTransformOriginENS_15TransformOriginE@Qt_6 6.6.0
 _ZN10QQuickItem19UpdatePaintNodeDataC1Ev@Qt_6 6.6.0
 _ZN10QQuickItem19UpdatePaintNodeDataC2Ev@Qt_6 6.6.0
 _ZN10QQuickItem19antialiasingChangedEb@Qt_6 6.6.0
 _ZN10QQuickItem19childrenRectChangedERK6QRectF@Qt_6 6.6.0
 _ZN10QQuickItem19setActiveFocusOnTabEb@Qt_6 6.6.0
 _ZN10QQuickItem20implicitWidthChangedEv@Qt_6 6.6.0
 _ZN10QQuickItem20nextItemInFocusChainEb@Qt_6 6.6.0
 _ZN10QQuickItem20setAcceptHoverEventsEb@Qt_6 6.6.0
 _ZN10QQuickItem20setAcceptTouchEventsEb@Qt_6 6.6.0
 _ZN10QQuickItem21baselineOffsetChangedEd@Qt_6 6.6.0
 _ZN10QQuickItem21childMouseEventFilterEPS_P6QEvent@Qt_6 6.6.0
 _ZN10QQuickItem21implicitHeightChangedEv@Qt_6 6.6.0
 _ZN10QQuickItem21mouseDoubleClickEventEP11QMouseEvent@Qt_6 6.6.0
 _ZN10QQuickItem22containmentMaskChangedEv@Qt_6 6.6.0
 _ZN10QQuickItem22transformOriginChangedENS_15TransformOriginE@Qt_6 6.6.0
 _ZN10QQuickItem22visibleChildrenChangedEv@Qt_6 6.6.0
 _ZN10QQuickItem23activeFocusOnTabChangedEb@Qt_6 6.6.0
 _ZN10QQuickItem23setAcceptedMouseButtonsE6QFlagsIN2Qt11MouseButtonEE@Qt_6 6.6.0
 _ZN10QQuickItem23setTransformOriginPointERK7QPointF@Qt_6 6.6.0
 _ZN10QQuickItem26setFiltersChildMouseEventsEb@Qt_6 6.6.0
 _ZN10QQuickItem4setXEd@Qt_6 6.6.0
 _ZN10QQuickItem4setYEd@Qt_6 6.6.0
 _ZN10QQuickItem4setZEd@Qt_6 6.6.0
 _ZN10QQuickItem5eventEP6QEvent@Qt_6 6.6.0
 _ZN10QQuickItem6polishEv@Qt_6 6.6.0
 _ZN10QQuickItem6updateEv@Qt_6 6.6.0
 _ZN10QQuickItem7setClipEb@Qt_6 6.6.0
 _ZN10QQuickItem7setFlagENS_4FlagEb@Qt_6 6.6.0
 _ZN10QQuickItem7setSizeERK6QSizeF@Qt_6 6.6.0
 _ZN10QQuickItem8setFlagsE6QFlagsINS_4FlagEE@Qt_6 6.6.0
 _ZN10QQuickItem8setFocusEb@Qt_6 6.6.0
 _ZN10QQuickItem8setFocusEbN2Qt11FocusReasonE@Qt_6 6.6.0
 _ZN10QQuickItem8setScaleEd@Qt_6 6.6.0
 _ZN10QQuickItem8setStateERK7QString@Qt_6 6.6.0
 _ZN10QQuickItem8setWidthEd@Qt_6 6.6.0
 _ZN10QQuickItem8xChangedEv@Qt_6 6.6.0
 _ZN10QQuickItem8yChangedEv@Qt_6 6.6.0
 _ZN10QQuickItem8zChangedEv@Qt_6 6.6.0
 _ZN10QQuickItem9bindableXEv@Qt_6 6.6.0
 _ZN10QQuickItem9bindableYEv@Qt_6 6.6.0
 _ZN10QQuickItem9dropEventEP10QDropEvent@Qt_6 6.6.0
 _ZN10QQuickItem9grabMouseEv@Qt_6 6.6.0
 _ZN10QQuickItem9mapToItemEPKS_dd@Qt_6 6.6.0
 _ZN10QQuickItem9setCursorERK7QCursor@Qt_6 6.6.0
 _ZN10QQuickItem9setHeightEd@Qt_6 6.6.0
 _ZN10QQuickItem9setSmoothEb@Qt_6 6.6.0
 _ZN10QQuickItem9transformEv@Qt_6 6.6.0
 _ZN10QQuickItemC1EPS_@Qt_6 6.6.0
 _ZN10QQuickItemC2EPS_@Qt_6 6.6.0
 _ZN10QQuickItemD0Ev@Qt_6 6.6.0
 _ZN10QQuickItemD1Ev@Qt_6 6.6.0
 _ZN10QQuickItemD2Ev@Qt_6 6.6.0
 _ZN10QQuickView10setContentERK4QUrlP13QQmlComponentP7QObject@Qt_6 6.6.0
 _ZN10QQuickView10timerEventEP11QTimerEvent@Qt_6 6.6.0
 _ZN10QQuickView11qt_metacallEN11QMetaObject4CallEiPPv@Qt_6 6.6.0
 _ZN10QQuickView11qt_metacastEPKc@Qt_6 6.6.0
 _ZN10QQuickView11resizeEventEP12QResizeEvent@Qt_6 6.6.0
 _ZN10QQuickView13keyPressEventEP9QKeyEvent@Qt_6 6.6.0
 _ZN10QQuickView13setResizeModeENS_10ResizeModeE@Qt_6 6.6.0
 _ZN10QQuickView13statusChangedENS_6StatusE@Qt_6 6.6.0
 _ZN10QQuickView14mouseMoveEventEP11QMouseEvent@Qt_6 6.6.0
 _ZN10QQuickView15continueExecuteEv@Qt_6 6.6.0
 _ZN10QQuickView15keyReleaseEventEP9QKeyEvent@Qt_6 6.6.0
 _ZN10QQuickView15mousePressEventEP11QMouseEvent@Qt_6 6.6.0
 _ZN10QQuickView16staticMetaObjectE@Qt_6 6.6.0
 _ZN10QQuickView17mouseReleaseEventEP11QMouseEvent@Qt_6 6.6.0
 _ZN10QQuickView20setInitialPropertiesERK4QMapI7QString8QVariantE@Qt_6 6.6.0
 _ZN10QQuickView9setSourceERK4QUrl@Qt_6 6.6.0
 _ZN10QQuickViewC1EP10QQmlEngineP7QWindow@Qt_6 6.6.0
 _ZN10QQuickViewC1EP7QWindow@Qt_6 6.6.0
 _ZN10QQuickViewC1ERK4QUrlP19QQuickRenderControl@Qt_6 6.6.0
 _ZN10QQuickViewC1ERK4QUrlP7QWindow@Qt_6 6.6.0
 _ZN10QQuickViewC2EP10QQmlEngineP7QWindow@Qt_6 6.6.0
 _ZN10QQuickViewC2EP7QWindow@Qt_6 6.6.0
 _ZN10QQuickViewC2ERK4QUrlP19QQuickRenderControl@Qt_6 6.6.0
 _ZN10QQuickViewC2ERK4QUrlP7QWindow@Qt_6 6.6.0
 _ZN10QQuickViewD0Ev@Qt_6 6.6.0
 _ZN10QQuickViewD1Ev@Qt_6 6.6.0
 _ZN10QQuickViewD2Ev@Qt_6 6.6.0
 _ZN10QSGTexture11qt_metacallEN11QMetaObject4CallEiPPv@Qt_6 6.6.0
 _ZN10QSGTexture11qt_metacastEPKc@Qt_6 6.6.0
 _ZN10QSGTexture12setFilteringENS_9FilteringE@Qt_6 6.6.0
 _ZN10QSGTexture16staticMetaObjectE@Qt_6 6.6.0
 _ZN10QSGTexture18setAnisotropyLevelENS_15AnisotropyLevelE@Qt_6 6.6.0
 _ZN10QSGTexture18setMipmapFilteringENS_9FilteringE@Qt_6 6.6.0
 _ZN10QSGTexture19setVerticalWrapModeENS_8WrapModeE@Qt_6 6.6.0
 _ZN10QSGTexture21setHorizontalWrapModeENS_8WrapModeE@Qt_6 6.6.0
 _ZN10QSGTexture23commitTextureOperationsEP4QRhiP23QRhiResourceUpdateBatch@Qt_6 6.6.0
 _ZN10QSGTextureC1Ev@Qt_6 6.6.0
 _ZN10QSGTextureC2Ev@Qt_6 6.6.0
 _ZN10QSGTextureD0Ev@Qt_6 6.6.0
 _ZN10QSGTextureD1Ev@Qt_6 6.6.0
 _ZN10QSGTextureD2Ev@Qt_6 6.6.0
 _ZN11QSGClipNode11setClipRectERK6QRectF@Qt_6 6.6.0
 _ZN11QSGClipNode16setIsRectangularEb@Qt_6 6.6.0
 _ZN11QSGClipNodeC1Ev@Qt_6 6.6.0
 _ZN11QSGClipNodeC2Ev@Qt_6 6.6.0
 _ZN11QSGClipNodeD0Ev@Qt_6 6.6.0
 _ZN11QSGClipNodeD1Ev@Qt_6 6.6.0
 _ZN11QSGClipNodeD2Ev@Qt_6 6.6.0
 _ZN11QSGGeometry12setLineWidthEf@Qt_6 6.6.0
 _ZN11QSGGeometry14setDrawingModeEj@Qt_6 6.6.0
 _ZN11QSGGeometry18markIndexDataDirtyEv@Qt_6 6.6.0
 _ZN11QSGGeometry18updateRectGeometryEPS_RK6QRectF@Qt_6 6.6.0
 _ZN11QSGGeometry19markVertexDataDirtyEv@Qt_6 6.6.0
 _ZN11QSGGeometry19setIndexDataPatternENS_11DataPatternE@Qt_6 6.6.0
 _ZN11QSGGeometry20setVertexDataPatternENS_11DataPatternE@Qt_6 6.6.0
 _ZN11QSGGeometry25defaultAttributes_Point2DEv@Qt_6 6.6.0
 _ZN11QSGGeometry25updateColoredRectGeometryEPS_RK6QRectF@Qt_6 6.6.0
 _ZN11QSGGeometry26updateTexturedRectGeometryEPS_RK6QRectFS3_@Qt_6 6.6.0
 _ZN11QSGGeometry32defaultAttributes_ColoredPoint2DEv@Qt_6 6.6.0
 _ZN11QSGGeometry33defaultAttributes_TexturedPoint2DEv@Qt_6 6.6.0
 _ZN11QSGGeometry8allocateEii@Qt_6 6.6.0
 _ZN11QSGGeometry9Attribute23createWithAttributeTypeEiiiNS_13AttributeTypeE@Qt_6 6.6.0
 _ZN11QSGGeometry9Attribute6createEiiib@Qt_6 6.6.0
 _ZN11QSGGeometry9indexDataEv@Qt_6 6.6.0
 _ZN11QSGGeometryC1ERKNS_12AttributeSetEiii@Qt_6 6.6.0
 _ZN11QSGGeometryC2ERKNS_12AttributeSetEiii@Qt_6 6.6.0
 _ZN11QSGGeometryD0Ev@Qt_6 6.6.0
 _ZN11QSGGeometryD1Ev@Qt_6 6.6.0
 _ZN11QSGGeometryD2Ev@Qt_6 6.6.0
 _ZN11QSGMaterial7setFlagE6QFlagsINS_4FlagEEb@Qt_6 6.6.0
 _ZN11QSGMaterialC1Ev@Qt_6 6.6.0
 _ZN11QSGMaterialC2Ev@Qt_6 6.6.0
 _ZN11QSGMaterialD0Ev@Qt_6 6.6.0
 _ZN11QSGMaterialD1Ev@Qt_6 6.6.0
 _ZN11QSGMaterialD2Ev@Qt_6 6.6.0
 _ZN11QSGRootNode16notifyNodeChangeEP7QSGNode6QFlagsINS0_13DirtyStateBitEE@Qt_6 6.6.0
 _ZN11QSGRootNodeC1Ev@Qt_6 6.6.0
 _ZN11QSGRootNodeC2Ev@Qt_6 6.6.0
 _ZN11QSGRootNodeD0Ev@Qt_6 6.6.0
 _ZN11QSGRootNodeD1Ev@Qt_6 6.6.0
 _ZN11QSGRootNodeD2Ev@Qt_6 6.6.0
 _ZN12QQuickWindow10closeEventEP11QCloseEvent@Qt_6 6.6.0
 _ZN12QQuickWindow10grabWindowEv@Qt_6 6.6.0
 _ZN12QQuickWindow10wheelEventEP11QWheelEvent@Qt_6 6.6.0
 _ZN12QQuickWindow11exposeEventEP12QExposeEvent@Qt_6 6.6.0
 _ZN12QQuickWindow11graphicsApiEv@Qt_6 6.6.0
 _ZN12QQuickWindow11maybeUpdateEv@Qt_6 6.6.0
 _ZN12QQuickWindow11qt_metacallEN11QMetaObject4CallEiPPv@Qt_6 6.6.0
 _ZN12QQuickWindow11qt_metacastEPKc@Qt_6 6.6.0
 _ZN12QQuickWindow11resizeEventEP12QResizeEvent@Qt_6 6.6.0
 _ZN12QQuickWindow11tabletEventEP12QTabletEvent@Qt_6 6.6.0
 _ZN12QQuickWindow12colorChangedERK6QColor@Qt_6 6.6.0
 _ZN12QQuickWindow12focusInEventEP11QFocusEvent@Qt_6 6.6.0
 _ZN12QQuickWindow12frameSwappedEv@Qt_6 6.6.0
 _ZN12QQuickWindow13afterFrameEndEv@Qt_6 6.6.0
 _ZN12QQuickWindow13focusOutEventEP11QFocusEvent@Qt_6 6.6.0
 _ZN12QQuickWindow13keyPressEventEP9QKeyEvent@Qt_6 6.6.0
 _ZN12QQuickWindow14afterAnimatingEv@Qt_6 6.6.0
 _ZN12QQuickWindow14afterRenderingEv@Qt_6 6.6.0
 _ZN12QQuickWindow14mouseMoveEventEP11QMouseEvent@Qt_6 6.6.0
 _ZN12QQuickWindow14paletteChangedEv@Qt_6 6.6.0
 _ZN12QQuickWindow14paletteCreatedEv@Qt_6 6.6.0
 _ZN12QQuickWindow14setGraphicsApiEN20QSGRendererInterface11GraphicsApiE@Qt_6 6.6.0
 _ZN12QQuickWindow14textRenderTypeEv@Qt_6 6.6.0
 _ZN12QQuickWindow15beforeRenderingEv@Qt_6 6.6.0
 _ZN12QQuickWindow15keyReleaseEventEP9QKeyEvent@Qt_6 6.6.0
 _ZN12QQuickWindow15mousePressEventEP11QMouseEvent@Qt_6 6.6.0
 _ZN12QQuickWindow15sceneGraphErrorENS_15SceneGraphErrorERK7QString@Qt_6 6.6.0
 _ZN12QQuickWindow15setRenderTargetERK18QQuickRenderTarget@Qt_6 6.6.0
 _ZN12QQuickWindow16beforeFrameBeginEv@Qt_6 6.6.0
 _ZN12QQuickWindow16releaseResourcesEv@Qt_6 6.6.0
 _ZN12QQuickWindow16runJobsAfterSwapEv@Qt_6 6.6.0
 _ZN12QQuickWindow16staticMetaObjectE@Qt_6 6.6.0
 _ZN12QQuickWindow17cleanupSceneGraphEv@Qt_6 6.6.0
 _ZN12QQuickWindow17graphicsStateInfoEv@Qt_6 6.6.0
 _ZN12QQuickWindow17mouseReleaseEventEP11QMouseEvent@Qt_6 6.6.0
 _ZN12QQuickWindow17sceneGraphBackendEv@Qt_6 6.6.0
 _ZN12QQuickWindow17scheduleRenderJobEP9QRunnableNS_11RenderStageE@Qt_6 6.6.0
 _ZN12QQuickWindow17setGraphicsDeviceERK20QQuickGraphicsDevice@Qt_6 6.6.0
 _ZN12QQuickWindow17setTextRenderTypeENS_14TextRenderTypeE@Qt_6 6.6.0
 _ZN12QQuickWindow18afterSynchronizingEv@Qt_6 6.6.0
 _ZN12QQuickWindow18physicalDpiChangedEv@Qt_6 6.6.0
 _ZN12QQuickWindow19beforeSynchronizingEv@Qt_6 6.6.0
 _ZN12QQuickWindow19endExternalCommandsEv@Qt_6 6.6.0
 _ZN12QQuickWindow19handleScreenChangedEP7QScreen@Qt_6 6.6.0
 _ZN12QQuickWindow20setSceneGraphBackendERK7QString@Qt_6 6.6.0
 _ZN12QQuickWindow21beginExternalCommandsEv@Qt_6 6.6.0
 _ZN12QQuickWindow21hasDefaultAlphaBufferEv@Qt_6 6.6.0
 _ZN12QQuickWindow21mouseDoubleClickEventEP11QMouseEvent@Qt_6 6.6.0
 _ZN12QQuickWindow21sceneGraphAboutToStopEv@Qt_6 6.6.0
 _ZN12QQuickWindow21sceneGraphInitializedEv@Qt_6 6.6.0
 _ZN12QQuickWindow21sceneGraphInvalidatedEv@Qt_6 6.6.0
 _ZN12QQuickWindow21setDefaultAlphaBufferEb@Qt_6 6.6.0
 _ZN12QQuickWindow21setPersistentGraphicsEb@Qt_6 6.6.0
 _ZN12QQuickWindow22activeFocusItemChangedEv@Qt_6 6.6.0
 _ZN12QQuickWindow23setPersistentSceneGraphEb@Qt_6 6.6.0
 _ZN12QQuickWindow24afterRenderPassRecordingEv@Qt_6 6.6.0
 _ZN12QQuickWindow24setGraphicsConfigurationERK27QQuickGraphicsConfiguration@Qt_6 6.6.0
 _ZN12QQuickWindow25beforeRenderPassRecordingEv@Qt_6 6.6.0
 _ZN12QQuickWindow25handleFontDatabaseChangedEv@Qt_6 6.6.0
 _ZN12QQuickWindow25setTransientParent_helperEPS_@Qt_6 6.6.0
 _ZN12QQuickWindow29handleApplicationStateChangedEN2Qt16ApplicationStateE@Qt_6 6.6.0
 _ZN12QQuickWindow5eventEP6QEvent@Qt_6 6.6.0
 _ZN12QQuickWindow6updateEv@Qt_6 6.6.0
 _ZN12QQuickWindow8setColorERK6QColor@Qt_6 6.6.0
 _ZN12QQuickWindow9hideEventEP10QHideEvent@Qt_6 6.6.0
 _ZN12QQuickWindow9showEventEP10QShowEvent@Qt_6 6.6.0
 _ZN12QQuickWindowC1EP19QQuickRenderControl@Qt_6 6.6.0
 _ZN12QQuickWindowC1EP7QWindow@Qt_6 6.6.0
 _ZN12QQuickWindowC2EP19QQuickRenderControl@Qt_6 6.6.0
 _ZN12QQuickWindowC2EP7QWindow@Qt_6 6.6.0
 _ZN12QQuickWindowD0Ev@Qt_6 6.6.0
 _ZN12QQuickWindowD1Ev@Qt_6 6.6.0
 _ZN12QQuickWindowD2Ev@Qt_6 6.6.0
 _ZN12QSGImageNode15rebuildGeometryEP11QSGGeometryP10QSGTextureRK6QRectFS4_6QFlagsINS_31TextureCoordinatesTransformFlagEE@Qt_6 6.6.0
 _ZN13QMetaSequence12MetaSequenceI5QListI10QMatrix4x4EE5valueE@Qt_6 6.6.0
 _ZN13QMetaSequence12MetaSequenceI5QListI11QColorSpaceEE5valueE@Qt_6 6.6.0
 _ZN13QMetaSequence12MetaSequenceI5QListI11QEventPointEE5valueE@Qt_6 6.6.0
 _ZN13QMetaSequence12MetaSequenceI5QListI11QQuaternionEE5valueE@Qt_6 6.6.0
 _ZN13QMetaSequence12MetaSequenceI5QListI23QPointingDeviceUniqueIdEE5valueE@Qt_6 6.6.0
 _ZN13QMetaSequence12MetaSequenceI5QListI4QUrlEE5valueE@Qt_6 6.6.0
 _ZN13QMetaSequence12MetaSequenceI5QListI5QFontEE5valueE@Qt_6 6.6.0
 _ZN13QMetaSequence12MetaSequenceI5QListI6QColorEE5valueE@Qt_6 6.6.0
 _ZN13QMetaSequence12MetaSequenceI5QListI6QImageEE5valueE@Qt_6 6.6.0
 _ZN13QMetaSequence12MetaSequenceI5QListI7QPointFEE5valueE@Qt_6 6.6.0
 _ZN13QMetaSequence12MetaSequenceI5QListI9QPolygonFEE5valueE@Qt_6 6.6.0
 _ZN13QMetaSequence12MetaSequenceI5QListI9QVector2DEE5valueE@Qt_6 6.6.0
 _ZN13QMetaSequence12MetaSequenceI5QListI9QVector3DEE5valueE@Qt_6 6.6.0
 _ZN13QMetaSequence12MetaSequenceI5QListI9QVector4DEE5valueE@Qt_6 6.6.0
 _ZN13QMetaSequence12MetaSequenceI5QListIP7QObjectEE5valueE@Qt_6 6.6.0
 _ZN13QMetaSequence12MetaSequenceI5QListIS1_I7QPointFEEE5valueE@Qt_6 6.6.0
 _ZN13QMetaSequence12MetaSequenceI5QListIiEE5valueE@Qt_6 6.6.0
 _ZN13QSGRenderNode11RenderStateD0Ev@Qt_6 6.6.0
 _ZN13QSGRenderNode11RenderStateD1Ev@Qt_6 6.6.0
 _ZN13QSGRenderNode11RenderStateD2Ev@Qt_6 6.6.0
 _ZN13QSGRenderNode16releaseResourcesEv@Qt_6 6.6.0
 _ZN13QSGRenderNode7prepareEv@Qt_6 6.6.0
 _ZN13QSGRenderNodeC1Ev@Qt_6 6.6.0
 _ZN13QSGRenderNodeC2Ev@Qt_6 6.6.0
 _ZN13QSGRenderNodeD0Ev@Qt_6 6.6.0
 _ZN13QSGRenderNodeD1Ev@Qt_6 6.6.0
 _ZN13QSGRenderNodeD2Ev@Qt_6 6.6.0
 _ZN14QSGNodeVisitor13visitChildrenEP7QSGNode@Qt_6 6.6.0
 _ZN14QSGNodeVisitor9visitNodeEP7QSGNode@Qt_6 6.6.0
 _ZN14QSGNodeVisitorD0Ev@Qt_6 6.6.0
 _ZN14QSGNodeVisitorD1Ev@Qt_6 6.6.0
 _ZN14QSGNodeVisitorD2Ev@Qt_6 6.6.0
 _ZN14QSGOpacityNode10setOpacityEd@Qt_6 6.6.0
 _ZN14QSGOpacityNode18setCombinedOpacityEd@Qt_6 6.6.0
 _ZN14QSGOpacityNodeC1Ev@Qt_6 6.6.0
 _ZN14QSGOpacityNodeC2Ev@Qt_6 6.6.0
 _ZN14QSGOpacityNodeD0Ev@Qt_6 6.6.0
 _ZN14QSGOpacityNodeD1Ev@Qt_6 6.6.0
 _ZN14QSGOpacityNodeD2Ev@Qt_6 6.6.0
 _ZN15QQuickFontEnums16staticMetaObjectE@Qt_6 6.6.0
 _ZN15QQuickSvgParser7pathArcER12QPainterPathdddiidddd@Qt_6 6.6.0
 _ZN15QQuickTransform11qt_metacallEN11QMetaObject4CallEiPPv@Qt_6 6.6.0
 _ZN15QQuickTransform11qt_metacastEPKc@Qt_6 6.6.0
 _ZN15QQuickTransform12appendToItemEP10QQuickItem@Qt_6 6.6.0
 _ZN15QQuickTransform13prependToItemEP10QQuickItem@Qt_6 6.6.0
 _ZN15QQuickTransform16staticMetaObjectE@Qt_6 6.6.0
 _ZN15QQuickTransform6updateEv@Qt_6 6.6.0
 _ZN15QQuickTransformC1EP7QObject@Qt_6 6.6.0
 _ZN15QQuickTransformC2EP7QObject@Qt_6 6.6.0
 _ZN15QQuickTransformD0Ev@Qt_6 6.6.0
 _ZN15QQuickTransformD1Ev@Qt_6 6.6.0
 _ZN15QQuickTransformD2Ev@Qt_6 6.6.0
 _ZN15QSGGeometryNode11setMaterialEP11QSGMaterial@Qt_6 6.6.0
 _ZN15QSGGeometryNode14setRenderOrderEi@Qt_6 6.6.0
 _ZN15QSGGeometryNode17setOpaqueMaterialEP11QSGMaterial@Qt_6 6.6.0
 _ZN15QSGGeometryNode19setInheritedOpacityEd@Qt_6 6.6.0
 _ZN15QSGGeometryNodeC1Ev@Qt_6 6.6.0
 _ZN15QSGGeometryNodeC2Ev@Qt_6 6.6.0
 _ZN15QSGGeometryNodeD0Ev@Qt_6 6.6.0
 _ZN15QSGGeometryNodeD1Ev@Qt_6 6.6.0
 _ZN15QSGGeometryNodeD2Ev@Qt_6 6.6.0
 _ZN16QNativeInterface16QSGOpenGLTexture10fromNativeEjP12QQuickWindowRK5QSize6QFlagsINS1_19CreateTextureOptionEE@Qt_6 6.6.0
 _ZN16QNativeInterface16QSGOpenGLTexture21fromNativeExternalOESEjP12QQuickWindowRK5QSize6QFlagsINS1_19CreateTextureOptionEE@Qt_6 6.6.0
 _ZN16QNativeInterface16QSGOpenGLTextureD0Ev@Qt_6 6.6.0
 _ZN16QNativeInterface16QSGOpenGLTextureD1Ev@Qt_6 6.6.0
 _ZN16QNativeInterface16QSGOpenGLTextureD2Ev@Qt_6 6.6.0
 (arch=amd64 arm64 loong64 ppc64 ppc64el riscv64 s390x)_ZN16QNativeInterface16QSGVulkanTexture10fromNativeEP9VkImage_T13VkImageLayoutP12QQuickWindowRK5QSize6QFlagsINS4_19CreateTextureOptionEE@Qt_6 6.6.0
 (arch=!amd64 !arm64 !loong64 !ppc64 !ppc64el !riscv64 !s390x)_ZN16QNativeInterface16QSGVulkanTexture10fromNativeEy13VkImageLayoutP12QQuickWindowRK5QSize6QFlagsINS2_19CreateTextureOptionEE@Qt_6 6.6.0
 _ZN16QNativeInterface16QSGVulkanTextureD0Ev@Qt_6 6.6.0
 _ZN16QNativeInterface16QSGVulkanTextureD1Ev@Qt_6 6.6.0
 _ZN16QNativeInterface16QSGVulkanTextureD2Ev@Qt_6 6.6.0
 _ZN16QSGBatchRenderer8Renderer11nodeChangedEP7QSGNode6QFlagsINS1_13DirtyStateBitEE@Qt_6 6.6.0
 _ZN16QSGBatchRenderer8Renderer11tagSubRootsEPNS_4NodeE@Qt_6 6.6.0
 _ZN16QSGBatchRenderer8Renderer11uploadBatchEPNS_5BatchE@Qt_6 6.6.0
 _ZN16QSGBatchRenderer8Renderer12checkOverlapEiiRKNS_4RectE@Qt_6 6.6.0
 _ZN16QSGBatchRenderer8Renderer12dummyTextureEv@Qt_6 6.6.0
 _ZN16QSGBatchRenderer8Renderer12nodeWasAddedEP7QSGNodePNS_4NodeE@Qt_6 6.6.0
 _ZN16QSGBatchRenderer8Renderer12renderInlineEv@Qt_6 6.6.0
 _ZN16QSGBatchRenderer8Renderer13batchRootInfoEPNS_4NodeE@Qt_6 6.6.0
 _ZN16QSGBatchRenderer8Renderer13endRenderPassEPNS0_17RenderPassContextE@Qt_6 6.6.0
 _ZN16QSGBatchRenderer8Renderer13prepareInlineEv@Qt_6 6.6.0
 _ZN16QSGBatchRenderer8Renderer14checkLineWidthEP11QSGGeometry@Qt_6 6.6.0
 _ZN16QSGBatchRenderer8Renderer14cleanupBatchesEP11QDataBufferIPNS_5BatchEE@Qt_6 6.6.0
 _ZN16QSGBatchRenderer8Renderer14nodeWasRemovedEPNS_4NodeE@Qt_6 6.6.0
 _ZN16QSGBatchRenderer8Renderer14releaseElementEPNS_7ElementEb@Qt_6 6.6.0
 _ZN16QSGBatchRenderer8Renderer15beginRenderPassEPNS0_17RenderPassContextE@Qt_6 6.6.0
 _ZN16QSGBatchRenderer8Renderer15changeBatchRootEPNS_4NodeES2_@Qt_6 6.6.0
 _ZN16QSGBatchRenderer8Renderer15updateClipStateEPK11QSGClipNodePNS_5BatchE@Qt_6 6.6.0
 _ZN16QSGBatchRenderer8Renderer16buildRenderListsEP7QSGNode@Qt_6 6.6.0
 _ZN16QSGBatchRenderer8Renderer16recordRenderPassEPNS0_17RenderPassContextE@Qt_6 6.6.0
 _ZN16QSGBatchRenderer8Renderer17prepareRenderPassEPNS0_17RenderPassContextE@Qt_6 6.6.0
 _ZN16QSGBatchRenderer8Renderer17registerBatchRootEPNS_4NodeES2_@Qt_6 6.6.0
 _ZN16QSGBatchRenderer8Renderer17renderMergedBatchEPNS0_19PreparedRenderBatchEb@Qt_6 6.6.0
 _ZN16QSGBatchRenderer8Renderer18enqueueStencilDrawEPKNS_5BatchE@Qt_6 6.6.0
 _ZN16QSGBatchRenderer8Renderer18nodeWasTransformedEPNS_4NodeEPi@Qt_6 6.6.0
 _ZN16QSGBatchRenderer8Renderer18setActiveRhiShaderEP17QSGMaterialShaderPNS_19ShaderManagerShaderE@Qt_6 6.6.0
 _ZN16QSGBatchRenderer8Renderer19ensurePipelineStateEPNS_7ElementEPKNS_19ShaderManagerShaderEb@Qt_6 6.6.0
 _ZN16QSGBatchRenderer8Renderer19prepareAlphaBatchesEv@Qt_6 6.6.0
 _ZN16QSGBatchRenderer8Renderer19renderRhiRenderNodeEPKNS_5BatchE@Qt_6 6.6.0
 _ZN16QSGBatchRenderer8Renderer19renderUnmergedBatchEPNS0_19PreparedRenderBatchEb@Qt_6 6.6.0
 _ZN16QSGBatchRenderer8Renderer19setGraphicsPipelineEP17QRhiCommandBufferPKNS_5BatchEPNS_7ElementEb@Qt_6 6.6.0
 _ZN16QSGBatchRenderer8Renderer19uploadMergedElementEPNS_7ElementEiPPcS4_S4_PvPi@Qt_6 6.6.0
 _ZN16QSGBatchRenderer8Renderer20buildStencilPipelineEPKNS_5BatchEb@Qt_6 6.6.0
 _ZN16QSGBatchRenderer8Renderer20nodeChangedBatchRootEPNS_4NodeES2_@Qt_6 6.6.0
 _ZN16QSGBatchRenderer8Renderer20prepareOpaqueBatchesEv@Qt_6 6.6.0
 _ZN16QSGBatchRenderer8Renderer20prepareRhiRenderNodeEPNS_5BatchEPNS0_19PreparedRenderBatchE@Qt_6 6.6.0
 _ZN16QSGBatchRenderer8Renderer20setVisualizationModeERK10QByteArray@Qt_6 6.6.0
 _ZN16QSGBatchRenderer8Renderer21deleteRemovedElementsEv@Qt_6 6.6.0
 _ZN16QSGBatchRenderer8Renderer21turnNodeIntoBatchRootEPNS_4NodeE@Qt_6 6.6.0
 _ZN16QSGBatchRenderer8Renderer22releaseCachedResourcesEv@Qt_6 6.6.0
 _ZN16QSGBatchRenderer8Renderer24destroyGraphicsResourcesEv@Qt_6 6.6.0
 _ZN16QSGBatchRenderer8Renderer24prepareRenderMergedBatchEPNS_5BatchEPNS0_19PreparedRenderBatchE@Qt_6 6.6.0
 _ZN16QSGBatchRenderer8Renderer24updateMaterialStaticDataEPNS_19ShaderManagerShaderERN17QSGMaterialShader11RenderStateEP11QSGMaterialPNS_5BatchEPb@Qt_6 6.6.0
 _ZN16QSGBatchRenderer8Renderer25invalidateAndRecycleBatchEPNS_5BatchE@Qt_6 6.6.0
 _ZN16QSGBatchRenderer8Renderer25removeBatchRootFromParentEPNS_4NodeE@Qt_6 6.6.0
 _ZN16QSGBatchRenderer8Renderer25updateMaterialDynamicDataEPNS_19ShaderManagerShaderERN17QSGMaterialShader11RenderStateEP11QSGMaterialPKNS_5BatchEPNS_7ElementEii@Qt_6 6.6.0
 _ZN16QSGBatchRenderer8Renderer26prepareRenderUnmergedBatchEPNS_5BatchEPNS0_19PreparedRenderBatchE@Qt_6 6.6.0
 _ZN16QSGBatchRenderer8Renderer27buildRenderListsFromScratchEv@Qt_6 6.6.0
 _ZN16QSGBatchRenderer8Renderer29applyClipStateToGraphicsStateEv@Qt_6 6.6.0
 _ZN16QSGBatchRenderer8Renderer30buildRenderListsForTaggedRootsEv@Qt_6 6.6.0
 _ZN16QSGBatchRenderer8Renderer3mapEPNS_6BufferEjb@Qt_6 6.6.0
 _ZN16QSGBatchRenderer8Renderer41invalidateBatchAndOverlappingRenderOrdersEPNS_5BatchE@Qt_6 6.6.0
 _ZN16QSGBatchRenderer8Renderer5unmapEPNS_6BufferEb@Qt_6 6.6.0
 _ZN16QSGBatchRenderer8Renderer6renderEv@Qt_6 6.6.0
 _ZN16QSGBatchRenderer8RendererD0Ev@Qt_6 6.6.0
 _ZN16QSGBatchRenderer8RendererD1Ev@Qt_6 6.6.0
 _ZN16QSGBatchRenderer8RendererD2Ev@Qt_6 6.6.0
 _ZN16QSGNinePatchNode15rebuildGeometryEP10QSGTextureP11QSGGeometryRK9QVector4DRK6QRectFd@Qt_6 6.6.0
 _ZN16QSGTransformNode17setCombinedMatrixERK10QMatrix4x4@Qt_6 6.6.0
 _ZN16QSGTransformNode9setMatrixERK10QMatrix4x4@Qt_6 6.6.0
 _ZN16QSGTransformNodeC1Ev@Qt_6 6.6.0
 _ZN16QSGTransformNodeC2Ev@Qt_6 6.6.0
 _ZN16QSGTransformNodeD0Ev@Qt_6 6.6.0
 _ZN16QSGTransformNodeD1Ev@Qt_6 6.6.0
 _ZN16QSGTransformNodeD2Ev@Qt_6 6.6.0
 _ZN17QQuickOpenGLUtils16resetOpenGLStateEv@Qt_6 6.6.0
 _ZN17QQuickPaintedItem10itemChangeEN10QQuickItem10ItemChangeERKNS0_14ItemChangeDataE@Qt_6 6.6.0
 _ZN17QQuickPaintedItem11qt_metacallEN11QMetaObject4CallEiPPv@Qt_6 6.6.0
 _ZN17QQuickPaintedItem11qt_metacastEPKc@Qt_6 6.6.0
 _ZN17QQuickPaintedItem12setFillColorERK6QColor@Qt_6 6.6.0
 _ZN17QQuickPaintedItem14setTextureSizeERK5QSize@Qt_6 6.6.0
 _ZN17QQuickPaintedItem15setAntialiasingEb@Qt_6 6.6.0
 _ZN17QQuickPaintedItem15setContentsSizeERK5QSize@Qt_6 6.6.0
 _ZN17QQuickPaintedItem15setRenderTargetENS_12RenderTargetE@Qt_6 6.6.0
 _ZN17QQuickPaintedItem15updatePaintNodeEP7QSGNodePN10QQuickItem19UpdatePaintNodeDataE@Qt_6 6.6.0
 _ZN17QQuickPaintedItem16fillColorChangedEv@Qt_6 6.6.0
 _ZN17QQuickPaintedItem16releaseResourcesEv@Qt_6 6.6.0
 _ZN17QQuickPaintedItem16setContentsScaleEd@Qt_6 6.6.0
 _ZN17QQuickPaintedItem16staticMetaObjectE@Qt_6 6.6.0
 _ZN17QQuickPaintedItem17resetContentsSizeEv@Qt_6 6.6.0
 _ZN17QQuickPaintedItem17setOpaquePaintingEb@Qt_6 6.6.0
 _ZN17QQuickPaintedItem18setPerformanceHintENS_15PerformanceHintEb@Qt_6 6.6.0
 _ZN17QQuickPaintedItem18textureSizeChangedEv@Qt_6 6.6.0
 _ZN17QQuickPaintedItem19contentsSizeChangedEv@Qt_6 6.6.0
 _ZN17QQuickPaintedItem19renderTargetChangedEv@Qt_6 6.6.0
 _ZN17QQuickPaintedItem19setPerformanceHintsE6QFlagsINS_15PerformanceHintEE@Qt_6 6.6.0
 _ZN17QQuickPaintedItem20contentsScaleChangedEv@Qt_6 6.6.0
 _ZN17QQuickPaintedItem20invalidateSceneGraphEv@Qt_6 6.6.0
 _ZN17QQuickPaintedItem6updateERK5QRect@Qt_6 6.6.0
 _ZN17QQuickPaintedItem9setMipmapEb@Qt_6 6.6.0
 _ZN17QQuickPaintedItemC1EP10QQuickItem@Qt_6 6.6.0
 _ZN17QQuickPaintedItemC2EP10QQuickItem@Qt_6 6.6.0
 _ZN17QQuickPaintedItemD0Ev@Qt_6 6.6.0
 _ZN17QQuickPaintedItemD1Ev@Qt_6 6.6.0
 _ZN17QQuickPaintedItemD2Ev@Qt_6 6.6.0
 _ZN17QSGDynamicTexture11qt_metacallEN11QMetaObject4CallEiPPv@Qt_6 6.6.0
 _ZN17QSGDynamicTexture11qt_metacastEPKc@Qt_6 6.6.0
 _ZN17QSGDynamicTexture16staticMetaObjectE@Qt_6 6.6.0
 _ZN17QSGDynamicTextureD0Ev@Qt_6 6.6.0
 _ZN17QSGDynamicTextureD1Ev@Qt_6 6.6.0
 _ZN17QSGDynamicTextureD2Ev@Qt_6 6.6.0
 _ZN17QSGMaterialShader11RenderState11uniformDataEv@Qt_6 6.6.0
 _ZN17QSGMaterialShader11RenderState19resourceUpdateBatchEv@Qt_6 6.6.0
 _ZN17QSGMaterialShader11RenderState3rhiEv@Qt_6 6.6.0
 _ZN17QSGMaterialShader17setShaderFileNameENS_5StageERK7QString@Qt_6 6.6.0
 _ZN17QSGMaterialShader17updateUniformDataERNS_11RenderStateEP11QSGMaterialS3_@Qt_6 6.6.0
 _ZN17QSGMaterialShader18updateSampledImageERNS_11RenderStateEiPP10QSGTextureP11QSGMaterialS6_@Qt_6 6.6.0
 _ZN17QSGMaterialShader27updateGraphicsPipelineStateERNS_11RenderStateEPNS_21GraphicsPipelineStateEP11QSGMaterialS5_@Qt_6 6.6.0
 _ZN17QSGMaterialShader7setFlagE6QFlagsINS_4FlagEEb@Qt_6 6.6.0
 _ZN17QSGMaterialShader8setFlagsE6QFlagsINS_4FlagEE@Qt_6 6.6.0
 _ZN17QSGMaterialShader9setShaderENS_5StageERK7QShader@Qt_6 6.6.0
 _ZN17QSGMaterialShaderC1Ev@Qt_6 6.6.0
 _ZN17QSGMaterialShaderC2Ev@Qt_6 6.6.0
 _ZN17QSGMaterialShaderD0Ev@Qt_6 6.6.0
 _ZN17QSGMaterialShaderD1Ev@Qt_6 6.6.0
 _ZN17QSGMaterialShaderD2Ev@Qt_6 6.6.0
 _ZN17QSGSimpleRectNode7setRectERK6QRectF@Qt_6 6.6.0
 _ZN17QSGSimpleRectNode8setColorERK6QColor@Qt_6 6.6.0
 _ZN17QSGSimpleRectNodeC1ERK6QRectFRK6QColor@Qt_6 6.6.0
 _ZN17QSGSimpleRectNodeC1Ev@Qt_6 6.6.0
 _ZN17QSGSimpleRectNodeC2ERK6QRectFRK6QColor@Qt_6 6.6.0
 _ZN17QSGSimpleRectNodeC2Ev@Qt_6 6.6.0
 _ZN18QQuickRenderTarget15fromPaintDeviceEP12QPaintDevice@Qt_6 6.6.0
 (arch=amd64 arm64 loong64 ppc64 ppc64el riscv64 s390x)_ZN18QQuickRenderTarget15fromVulkanImageEP9VkImage_T13VkImageLayout8VkFormatRK5QSizei@Qt_6 6.6.0
 (arch=amd64 arm64 loong64 ppc64 ppc64el riscv64 s390x)_ZN18QQuickRenderTarget15fromVulkanImageEP9VkImage_T13VkImageLayoutRK5QSizei@Qt_6 6.6.0
 (arch=!amd64 !arm64 !loong64 !ppc64 !ppc64el !riscv64 !s390x)_ZN18QQuickRenderTarget15fromVulkanImageEy13VkImageLayout8VkFormatRK5QSizei@Qt_6 6.6.0
 (arch=!amd64 !arm64 !loong64 !ppc64 !ppc64el !riscv64 !s390x)_ZN18QQuickRenderTarget15fromVulkanImageEy13VkImageLayoutRK5QSizei@Qt_6 6.6.0
 _ZN18QQuickRenderTarget17fromOpenGLTextureEjRK5QSizei@Qt_6 6.6.0
 _ZN18QQuickRenderTarget17fromOpenGLTextureEjjRK5QSizei@Qt_6 6.6.0
 _ZN18QQuickRenderTarget19fromRhiRenderTargetEP16QRhiRenderTarget@Qt_6 6.6.0
 _ZN18QQuickRenderTarget19setDevicePixelRatioEd@Qt_6 6.6.0
 _ZN18QQuickRenderTarget19setMirrorVerticallyEb@Qt_6 6.6.0
 _ZN18QQuickRenderTarget22fromOpenGLRenderBufferEjRK5QSizei@Qt_6 6.6.0
 _ZN18QQuickRenderTarget6detachEv@Qt_6 6.6.0
 _ZN18QQuickRenderTargetC1ERKS_@Qt_6 6.6.0
 _ZN18QQuickRenderTargetC1Ev@Qt_6 6.6.0
 _ZN18QQuickRenderTargetC2ERKS_@Qt_6 6.6.0
 _ZN18QQuickRenderTargetC2Ev@Qt_6 6.6.0
 _ZN18QQuickRenderTargetD1Ev@Qt_6 6.6.0
 _ZN18QQuickRenderTargetD2Ev@Qt_6 6.6.0
 _ZN18QQuickRenderTargetaSERKS_@Qt_6 6.6.0
 _ZN18QQuickTextDocument11qt_metacallEN11QMetaObject4CallEiPPv@Qt_6 6.6.0
 _ZN18QQuickTextDocument11qt_metacastEPKc@Qt_6 6.6.0
 _ZN18QQuickTextDocument16staticMetaObjectE@Qt_6 6.6.0
 _ZN18QQuickTextDocumentC1EP10QQuickItem@Qt_6 6.6.0
 _ZN18QQuickTextDocumentC2EP10QQuickItem@Qt_6 6.6.0
 _ZN18QSGTextureProvider11qt_metacallEN11QMetaObject4CallEiPPv@Qt_6 6.6.0
 _ZN18QSGTextureProvider11qt_metacastEPKc@Qt_6 6.6.0
 _ZN18QSGTextureProvider14textureChangedEv@Qt_6 6.6.0
 _ZN18QSGTextureProvider16staticMetaObjectE@Qt_6 6.6.0
 _ZN19QQuickImageProvider11qt_metacallEN11QMetaObject4CallEiPPv@Qt_6 6.6.0
 _ZN19QQuickImageProvider11qt_metacastEPKc@Qt_6 6.6.0
 _ZN19QQuickImageProvider12requestImageERK7QStringP5QSizeRKS3_@Qt_6 6.6.0
 _ZN19QQuickImageProvider13requestPixmapERK7QStringP5QSizeRKS3_@Qt_6 6.6.0
 _ZN19QQuickImageProvider14requestTextureERK7QStringP5QSizeRKS3_@Qt_6 6.6.0
 _ZN19QQuickImageProvider16staticMetaObjectE@Qt_6 6.6.0
 _ZN19QQuickImageProviderC1EN21QQmlImageProviderBase9ImageTypeE6QFlagsINS0_4FlagEE@Qt_6 6.6.0
 _ZN19QQuickImageProviderC2EN21QQmlImageProviderBase9ImageTypeE6QFlagsINS0_4FlagEE@Qt_6 6.6.0
 _ZN19QQuickImageProviderD0Ev@Qt_6 6.6.0
 _ZN19QQuickImageProviderD1Ev@Qt_6 6.6.0
 _ZN19QQuickImageProviderD2Ev@Qt_6 6.6.0
 _ZN19QQuickImageResponse11qt_metacallEN11QMetaObject4CallEiPPv@Qt_6 6.6.0
 _ZN19QQuickImageResponse11qt_metacastEPKc@Qt_6 6.6.0
 _ZN19QQuickImageResponse16staticMetaObjectE@Qt_6 6.6.0
 _ZN19QQuickImageResponse6cancelEv@Qt_6 6.6.0
 _ZN19QQuickImageResponse8finishedEv@Qt_6 6.6.0
 _ZN19QQuickImageResponseC1Ev@Qt_6 6.6.0
 _ZN19QQuickImageResponseC2Ev@Qt_6 6.6.0
 _ZN19QQuickImageResponseD0Ev@Qt_6 6.6.0
 _ZN19QQuickImageResponseD1Ev@Qt_6 6.6.0
 _ZN19QQuickImageResponseD2Ev@Qt_6 6.6.0
 _ZN19QQuickRenderControl10beginFrameEv@Qt_6 6.6.0
 _ZN19QQuickRenderControl10initializeEv@Qt_6 6.6.0
 _ZN19QQuickRenderControl10invalidateEv@Qt_6 6.6.0
 _ZN19QQuickRenderControl10setSamplesEi@Qt_6 6.6.0
 _ZN19QQuickRenderControl11polishItemsEv@Qt_6 6.6.0
 _ZN19QQuickRenderControl11qt_metacallEN11QMetaObject4CallEiPPv@Qt_6 6.6.0
 _ZN19QQuickRenderControl11qt_metacastEPKc@Qt_6 6.6.0
 _ZN19QQuickRenderControl12sceneChangedEv@Qt_6 6.6.0
 _ZN19QQuickRenderControl13prepareThreadEP7QThread@Qt_6 6.6.0
 _ZN19QQuickRenderControl15renderRequestedEv@Qt_6 6.6.0
 _ZN19QQuickRenderControl15renderWindowForEP12QQuickWindowP6QPoint@Qt_6 6.6.0
 _ZN19QQuickRenderControl16staticMetaObjectE@Qt_6 6.6.0
 _ZN19QQuickRenderControl4syncEv@Qt_6 6.6.0
 _ZN19QQuickRenderControl6renderEv@Qt_6 6.6.0
 _ZN19QQuickRenderControl8endFrameEv@Qt_6 6.6.0
 _ZN19QQuickRenderControlC1EP7QObject@Qt_6 6.6.0
 _ZN19QQuickRenderControlC2EP7QObject@Qt_6 6.6.0
 _ZN19QQuickRenderControlD0Ev@Qt_6 6.6.0
 _ZN19QQuickRenderControlD1Ev@Qt_6 6.6.0
 _ZN19QQuickRenderControlD2Ev@Qt_6 6.6.0
 _ZN20QQuickGraphicsDevice17fromDeviceObjectsEP18VkPhysicalDevice_TP10VkDevice_Tii@Qt_6 6.6.0
 _ZN20QQuickGraphicsDevice17fromOpenGLContextEP14QOpenGLContext@Qt_6 6.6.0
 _ZN20QQuickGraphicsDevice18fromPhysicalDeviceEP18VkPhysicalDevice_T@Qt_6 6.6.0
 _ZN20QQuickGraphicsDevice6detachEv@Qt_6 6.6.0
 _ZN20QQuickGraphicsDevice7fromRhiEP4QRhi@Qt_6 6.6.0
 _ZN20QQuickGraphicsDeviceC1ERKS_@Qt_6 6.6.0
 _ZN20QQuickGraphicsDeviceC1Ev@Qt_6 6.6.0
 _ZN20QQuickGraphicsDeviceC2ERKS_@Qt_6 6.6.0
 _ZN20QQuickGraphicsDeviceC2Ev@Qt_6 6.6.0
 _ZN20QQuickGraphicsDeviceD1Ev@Qt_6 6.6.0
 _ZN20QQuickGraphicsDeviceD2Ev@Qt_6 6.6.0
 _ZN20QQuickGraphicsDeviceaSERKS_@Qt_6 6.6.0
 _ZN20QQuickItemGrabResult11qt_metacallEN11QMetaObject4CallEiPPv@Qt_6 6.6.0
 _ZN20QQuickItemGrabResult11qt_metacastEPKc@Qt_6 6.6.0
 _ZN20QQuickItemGrabResult16staticMetaObjectE@Qt_6 6.6.0
 _ZN20QQuickItemGrabResult5eventEP6QEvent@Qt_6 6.6.0
 _ZN20QQuickItemGrabResult5readyEv@Qt_6 6.6.0
 _ZN20QQuickItemGrabResult5setupEv@Qt_6 6.6.0
 _ZN20QQuickItemGrabResult6renderEv@Qt_6 6.6.0
 _ZN20QQuickItemGrabResultC1EP7QObject@Qt_6 6.6.0
 _ZN20QQuickItemGrabResultC2EP7QObject@Qt_6 6.6.0
 _ZN20QQuickTextureFactory11qt_metacallEN11QMetaObject4CallEiPPv@Qt_6 6.6.0
 _ZN20QQuickTextureFactory11qt_metacastEPKc@Qt_6 6.6.0
 _ZN20QQuickTextureFactory16staticMetaObjectE@Qt_6 6.6.0
 _ZN20QQuickTextureFactory22textureFactoryForImageERK6QImage@Qt_6 6.6.0
 _ZN20QQuickTextureFactoryC1Ev@Qt_6 6.6.0
 _ZN20QQuickTextureFactoryC2Ev@Qt_6 6.6.0
 _ZN20QQuickTextureFactoryD0Ev@Qt_6 6.6.0
 _ZN20QQuickTextureFactoryD1Ev@Qt_6 6.6.0
 _ZN20QQuickTextureFactoryD2Ev@Qt_6 6.6.0
 _ZN20QSGBasicGeometryNode11setGeometryEP11QSGGeometry@Qt_6 6.6.0
 _ZN20QSGBasicGeometryNodeC1EN7QSGNode8NodeTypeE@Qt_6 6.6.0
 _ZN20QSGBasicGeometryNodeC2EN7QSGNode8NodeTypeE@Qt_6 6.6.0
 _ZN20QSGBasicGeometryNodeD0Ev@Qt_6 6.6.0
 _ZN20QSGBasicGeometryNodeD1Ev@Qt_6 6.6.0
 _ZN20QSGBasicGeometryNodeD2Ev@Qt_6 6.6.0
 _ZN20QSGFlatColorMaterial8setColorERK6QColor@Qt_6 6.6.0
 _ZN20QSGFlatColorMaterialC1Ev@Qt_6 6.6.0
 _ZN20QSGFlatColorMaterialC2Ev@Qt_6 6.6.0
 _ZN20QSGRendererInterface13isApiRhiBasedENS_11GraphicsApiE@Qt_6 6.6.0
 _ZN20QSGRendererInterfaceD0Ev@Qt_6 6.6.0
 _ZN20QSGRendererInterfaceD1Ev@Qt_6 6.6.0
 _ZN20QSGRendererInterfaceD2Ev@Qt_6 6.6.0
 _ZN20QSGSimpleTextureNode10setTextureEP10QSGTexture@Qt_6 6.6.0
 _ZN20QSGSimpleTextureNode12setFilteringEN10QSGTexture9FilteringE@Qt_6 6.6.0
 _ZN20QSGSimpleTextureNode13setSourceRectERK6QRectF@Qt_6 6.6.0
 _ZN20QSGSimpleTextureNode14setOwnsTextureEb@Qt_6 6.6.0
 _ZN20QSGSimpleTextureNode30setTextureCoordinatesTransformE6QFlagsINS_31TextureCoordinatesTransformFlagEE@Qt_6 6.6.0
 _ZN20QSGSimpleTextureNode7setRectERK6QRectF@Qt_6 6.6.0
 _ZN20QSGSimpleTextureNodeC1Ev@Qt_6 6.6.0
 _ZN20QSGSimpleTextureNodeC2Ev@Qt_6 6.6.0
 _ZN20QSGSimpleTextureNodeD0Ev@Qt_6 6.6.0
 _ZN20QSGSimpleTextureNodeD1Ev@Qt_6 6.6.0
 _ZN20QSGSimpleTextureNodeD2Ev@Qt_6 6.6.0
 _ZN21QQuickColorSpaceEnums16staticMetaObjectE@Qt_6 6.6.0
 _ZN22QSGVertexColorMaterialC1Ev@Qt_6 6.6.0
 _ZN22QSGVertexColorMaterialC2Ev@Qt_6 6.6.0
 _ZN23QQuickFramebufferObject11qt_metacallEN11QMetaObject4CallEiPPv@Qt_6 6.6.0
 _ZN23QQuickFramebufferObject11qt_metacastEPKc@Qt_6 6.6.0
 _ZN23QQuickFramebufferObject14geometryChangeERK6QRectFS2_@Qt_6 6.6.0
 _ZN23QQuickFramebufferObject15updatePaintNodeEP7QSGNodePN10QQuickItem19UpdatePaintNodeDataE@Qt_6 6.6.0
 _ZN23QQuickFramebufferObject16releaseResourcesEv@Qt_6 6.6.0
 _ZN23QQuickFramebufferObject16staticMetaObjectE@Qt_6 6.6.0
 _ZN23QQuickFramebufferObject19setMirrorVerticallyEb@Qt_6 6.6.0
 _ZN23QQuickFramebufferObject20invalidateSceneGraphEv@Qt_6 6.6.0
 _ZN23QQuickFramebufferObject23mirrorVerticallyChangedEb@Qt_6 6.6.0
 _ZN23QQuickFramebufferObject25setTextureFollowsItemSizeEb@Qt_6 6.6.0
 _ZN23QQuickFramebufferObject29textureFollowsItemSizeChangedEb@Qt_6 6.6.0
 _ZN23QQuickFramebufferObject8Renderer11synchronizeEPS_@Qt_6 6.6.0
 _ZN23QQuickFramebufferObject8Renderer23createFramebufferObjectERK5QSize@Qt_6 6.6.0
 _ZN23QQuickFramebufferObject8Renderer27invalidateFramebufferObjectEv@Qt_6 6.6.0
 _ZN23QQuickFramebufferObject8Renderer6updateEv@Qt_6 6.6.0
 _ZN23QQuickFramebufferObject8RendererC1Ev@Qt_6 6.6.0
 _ZN23QQuickFramebufferObject8RendererC2Ev@Qt_6 6.6.0
 _ZN23QQuickFramebufferObject8RendererD0Ev@Qt_6 6.6.0
 _ZN23QQuickFramebufferObject8RendererD1Ev@Qt_6 6.6.0
 _ZN23QQuickFramebufferObject8RendererD2Ev@Qt_6 6.6.0
 _ZN23QQuickFramebufferObjectC1EP10QQuickItem@Qt_6 6.6.0
 _ZN23QQuickFramebufferObjectC2EP10QQuickItem@Qt_6 6.6.0
 _ZN24QQuickAsyncImageProviderC1Ev@Qt_6 6.6.0
 _ZN24QQuickAsyncImageProviderC2Ev@Qt_6 6.6.0
 _ZN24QQuickAsyncImageProviderD0Ev@Qt_6 6.6.0
 _ZN24QQuickAsyncImageProviderD1Ev@Qt_6 6.6.0
 _ZN24QQuickAsyncImageProviderD2Ev@Qt_6 6.6.0
 _ZN24QSGOpaqueTextureMaterial10setTextureEP10QSGTexture@Qt_6 6.6.0
 _ZN24QSGOpaqueTextureMaterialC1Ev@Qt_6 6.6.0
 _ZN24QSGOpaqueTextureMaterialC2Ev@Qt_6 6.6.0
 _ZN27QQuickGraphicsConfiguration13setDebugLayerEb@Qt_6 6.6.0
 _ZN27QQuickGraphicsConfiguration13setTimestampsEb@Qt_6 6.6.0
 _ZN27QQuickGraphicsConfiguration15setDebugMarkersEb@Qt_6 6.6.0
 _ZN27QQuickGraphicsConfiguration19setDepthBufferFor2DEb@Qt_6 6.6.0
 _ZN27QQuickGraphicsConfiguration19setDeviceExtensionsERK5QListI10QByteArrayE@Qt_6 6.6.0
 _ZN27QQuickGraphicsConfiguration23setPreferSoftwareDeviceEb@Qt_6 6.6.0
 _ZN27QQuickGraphicsConfiguration24setPipelineCacheLoadFileERK7QString@Qt_6 6.6.0
 _ZN27QQuickGraphicsConfiguration24setPipelineCacheSaveFileERK7QString@Qt_6 6.6.0
 _ZN27QQuickGraphicsConfiguration25setAutomaticPipelineCacheEb@Qt_6 6.6.0
 _ZN27QQuickGraphicsConfiguration27preferredInstanceExtensionsEv@Qt_6 6.6.0
 _ZN27QQuickGraphicsConfiguration6detachEv@Qt_6 6.6.0
 _ZN27QQuickGraphicsConfigurationC1ERKS_@Qt_6 6.6.0
 _ZN27QQuickGraphicsConfigurationC1Ev@Qt_6 6.6.0
 _ZN27QQuickGraphicsConfigurationC2ERKS_@Qt_6 6.6.0
 _ZN27QQuickGraphicsConfigurationC2Ev@Qt_6 6.6.0
 _ZN27QQuickGraphicsConfigurationD1Ev@Qt_6 6.6.0
 _ZN27QQuickGraphicsConfigurationD2Ev@Qt_6 6.6.0
 _ZN27QQuickGraphicsConfigurationaSERKS_@Qt_6 6.6.0
 _ZN7QSGNode15appendChildNodeEPS_@Qt_6 6.6.0
 _ZN7QSGNode15removeChildNodeEPS_@Qt_6 6.6.0
 _ZN7QSGNode16prependChildNodeEPS_@Qt_6 6.6.0
 _ZN7QSGNode19removeAllChildNodesEv@Qt_6 6.6.0
 _ZN7QSGNode20insertChildNodeAfterEPS_S0_@Qt_6 6.6.0
 _ZN7QSGNode20reparentChildNodesToEPS_@Qt_6 6.6.0
 _ZN7QSGNode21insertChildNodeBeforeEPS_S0_@Qt_6 6.6.0
 _ZN7QSGNode4initEv@Qt_6 6.6.0
 _ZN7QSGNode7destroyEv@Qt_6 6.6.0
 _ZN7QSGNode7setFlagENS_4FlagEb@Qt_6 6.6.0
 _ZN7QSGNode8setFlagsE6QFlagsINS_4FlagEEb@Qt_6 6.6.0
 _ZN7QSGNode9markDirtyE6QFlagsINS_13DirtyStateBitEE@Qt_6 6.6.0
 _ZN7QSGNodeC1ENS_8NodeTypeE@Qt_6 6.6.0
 _ZN7QSGNodeC1Ev@Qt_6 6.6.0
 _ZN7QSGNodeC2ENS_8NodeTypeE@Qt_6 6.6.0
 _ZN7QSGNodeC2Ev@Qt_6 6.6.0
 _ZN7QSGNodeD0Ev@Qt_6 6.6.0
 _ZN7QSGNodeD1Ev@Qt_6 6.6.0
 _ZN7QSGNodeD2Ev@Qt_6 6.6.0
 _ZNK10QQuickItem10childItemsEv@Qt_6 6.6.0
 _ZNK10QQuickItem10mapToSceneERK7QPointF@Qt_6 6.6.0
 _ZNK10QQuickItem10metaObjectEv@Qt_6 6.6.0
 _ZNK10QQuickItem10parentItemEv@Qt_6 6.6.0
 _ZNK10QQuickItem10widthValidEv@Qt_6 6.6.0
 _ZNK10QQuickItem11heightValidEv@Qt_6 6.6.0
 _ZNK10QQuickItem11mapFromItemEP14QQmlV4Function@Qt_6 6.6.0
 _ZNK10QQuickItem11mapFromItemEPKS_RK6QRectF@Qt_6 6.6.0
 _ZNK10QQuickItem11mapFromItemEPKS_RK7QPointF@Qt_6 6.6.0
 _ZNK10QQuickItem11mapFromItemEPKS_dddd@Qt_6 6.6.0
 _ZNK10QQuickItem11mapToGlobalEP14QQmlV4Function@Qt_6 6.6.0
 _ZNK10QQuickItem11mapToGlobalERK7QPointF@Qt_6 6.6.0
 _ZNK10QQuickItem11mapToGlobalEdd@Qt_6 6.6.0
 _ZNK10QQuickItem12antialiasingEv@Qt_6 6.6.0
 _ZNK10QQuickItem12boundingRectEv@Qt_6 6.6.0
 _ZNK10QQuickItem12dumpItemTreeEv@Qt_6 6.6.0
 _ZNK10QQuickItem12isAncestorOfEPKS_@Qt_6 6.6.0
 _ZNK10QQuickItem12isFocusScopeEv@Qt_6 6.6.0
 _ZNK10QQuickItem12isUnderMouseEv@Qt_6 6.6.0
 _ZNK10QQuickItem12mapFromSceneERK7QPointF@Qt_6 6.6.0
 _ZNK10QQuickItem12viewportItemEv@Qt_6 6.6.0
 _ZNK10QQuickItem13implicitWidthEv@Qt_6 6.6.0
 _ZNK10QQuickItem13itemTransformEPS_Pb@Qt_6 6.6.0
 _ZNK10QQuickItem13keepMouseGrabEv@Qt_6 6.6.0
 _ZNK10QQuickItem13keepTouchGrabEv@Qt_6 6.6.0
 _ZNK10QQuickItem13mapFromGlobalEP14QQmlV4Function@Qt_6 6.6.0
 _ZNK10QQuickItem13mapFromGlobalERK7QPointF@Qt_6 6.6.0
 _ZNK10QQuickItem13mapFromGlobalEdd@Qt_6 6.6.0
 _ZNK10QQuickItem13mapRectToItemEPKS_RK6QRectF@Qt_6 6.6.0
 _ZNK10QQuickItem14baselineOffsetEv@Qt_6 6.6.0
 _ZNK10QQuickItem14hasActiveFocusEv@Qt_6 6.6.0
 _ZNK10QQuickItem14implicitHeightEv@Qt_6 6.6.0
 _ZNK10QQuickItem14mapRectToSceneERK6QRectF@Qt_6 6.6.0
 _ZNK10QQuickItem15containmentMaskEv@Qt_6 6.6.0
 _ZNK10QQuickItem15mapRectFromItemEPKS_RK6QRectF@Qt_6 6.6.0
 _ZNK10QQuickItem15scopedFocusItemEv@Qt_6 6.6.0
 _ZNK10QQuickItem15textureProviderEv@Qt_6 6.6.0
 _ZNK10QQuickItem15transformOriginEv@Qt_6 6.6.0
 _ZNK10QQuickItem16activeFocusOnTabEv@Qt_6 6.6.0
 _ZNK10QQuickItem16inputMethodQueryEN2Qt16InputMethodQueryE@Qt_6 6.6.0
 _ZNK10QQuickItem16mapRectFromSceneERK6QRectF@Qt_6 6.6.0
 _ZNK10QQuickItem17acceptHoverEventsEv@Qt_6 6.6.0
 _ZNK10QQuickItem17acceptTouchEventsEv@Qt_6 6.6.0
 _ZNK10QQuickItem17isTextureProviderEv@Qt_6 6.6.0
 _ZNK10QQuickItem19isComponentCompleteEv@Qt_6 6.6.0
 _ZNK10QQuickItem1xEv@Qt_6 6.6.0
 _ZNK10QQuickItem1yEv@Qt_6 6.6.0
 _ZNK10QQuickItem1zEv@Qt_6 6.6.0
 _ZNK10QQuickItem20acceptedMouseButtonsEv@Qt_6 6.6.0
 _ZNK10QQuickItem20transformOriginPointEv@Qt_6 6.6.0
 _ZNK10QQuickItem23filtersChildMouseEventsEv@Qt_6 6.6.0
 _ZNK10QQuickItem4clipEv@Qt_6 6.6.0
 _ZNK10QQuickItem4sizeEv@Qt_6 6.6.0
 _ZNK10QQuickItem5flagsEv@Qt_6 6.6.0
 _ZNK10QQuickItem5scaleEv@Qt_6 6.6.0
 _ZNK10QQuickItem5stateEv@Qt_6 6.6.0
 _ZNK10QQuickItem5widthEv@Qt_6 6.6.0
 _ZNK10QQuickItem6cursorEv@Qt_6 6.6.0
 _ZNK10QQuickItem6heightEv@Qt_6 6.6.0
 _ZNK10QQuickItem6smoothEv@Qt_6 6.6.0
 _ZNK10QQuickItem6windowEv@Qt_6 6.6.0
 _ZNK10QQuickItem7childAtEdd@Qt_6 6.6.0
 _ZNK10QQuickItem7opacityEv@Qt_6 6.6.0
 _ZNK10QQuickItem8clipRectEv@Qt_6 6.6.0
 _ZNK10QQuickItem8containsERK7QPointF@Qt_6 6.6.0
 _ZNK10QQuickItem8hasFocusEv@Qt_6 6.6.0
 _ZNK10QQuickItem8positionEv@Qt_6 6.6.0
 _ZNK10QQuickItem8rotationEv@Qt_6 6.6.0
 _ZNK10QQuickItem9isEnabledEv@Qt_6 6.6.0
 _ZNK10QQuickItem9isVisibleEv@Qt_6 6.6.0
 _ZNK10QQuickItem9mapToItemEP14QQmlV4Function@Qt_6 6.6.0
 _ZNK10QQuickItem9mapToItemEPKS_RK6QRectF@Qt_6 6.6.0
 _ZNK10QQuickItem9mapToItemEPKS_RK7QPointF@Qt_6 6.6.0
 _ZNK10QQuickItem9mapToItemEPKS_dddd@Qt_6 6.6.0
 _ZNK10QQuickView10metaObjectEv@Qt_6 6.6.0
 _ZNK10QQuickView10resizeModeEv@Qt_6 6.6.0
 _ZNK10QQuickView10rootObjectEv@Qt_6 6.6.0
 _ZNK10QQuickView11initialSizeEv@Qt_6 6.6.0
 _ZNK10QQuickView11rootContextEv@Qt_6 6.6.0
 _ZNK10QQuickView6engineEv@Qt_6 6.6.0
 _ZNK10QQuickView6errorsEv@Qt_6 6.6.0
 _ZNK10QQuickView6sourceEv@Qt_6 6.6.0
 _ZNK10QQuickView6statusEv@Qt_6 6.6.0
 _ZNK10QQuickView8sizeHintEv@Qt_6 6.6.0
 _ZNK10QSGTexture10metaObjectEv@Qt_6 6.6.0
 _ZNK10QSGTexture10rhiTextureEv@Qt_6 6.6.0
 _ZNK10QSGTexture14isAtlasTextureEv@Qt_6 6.6.0
 _ZNK10QSGTexture15anisotropyLevelEv@Qt_6 6.6.0
 _ZNK10QSGTexture15mipmapFilteringEv@Qt_6 6.6.0
 _ZNK10QSGTexture16removedFromAtlasEP23QRhiResourceUpdateBatch@Qt_6 6.6.0
 _ZNK10QSGTexture16resolveInterfaceEPKci@Qt_6 6.6.0
 _ZNK10QSGTexture16verticalWrapModeEv@Qt_6 6.6.0
 _ZNK10QSGTexture18horizontalWrapModeEv@Qt_6 6.6.0
 _ZNK10QSGTexture24normalizedTextureSubRectEv@Qt_6 6.6.0
 _ZNK10QSGTexture9filteringEv@Qt_6 6.6.0
 _ZNK11QSGGeometry9indexDataEv@Qt_6 6.6.0
 _ZNK11QSGGeometry9lineWidthEv@Qt_6 6.6.0
 _ZNK11QSGMaterial7compareEPKS_@Qt_6 6.6.0
 _ZNK12QQuickWindow10metaObjectEv@Qt_6 6.6.0
 _ZNK12QQuickWindow11contentItemEv@Qt_6 6.6.0
 _ZNK12QQuickWindow11focusObjectEv@Qt_6 6.6.0
 _ZNK12QQuickWindow12renderTargetEv@Qt_6 6.6.0
 _ZNK12QQuickWindow14accessibleRootEv@Qt_6 6.6.0
 _ZNK12QQuickWindow14graphicsDeviceEv@Qt_6 6.6.0
 _ZNK12QQuickWindow15activeFocusItemEv@Qt_6 6.6.0
 _ZNK12QQuickWindow15createImageNodeEv@Qt_6 6.6.0
 _ZNK12QQuickWindow16mouseGrabberItemEv@Qt_6 6.6.0
 _ZNK12QQuickWindow17rendererInterfaceEv@Qt_6 6.6.0
 _ZNK12QQuickWindow19createNinePatchNodeEv@Qt_6 6.6.0
 _ZNK12QQuickWindow19createRectangleNodeEv@Qt_6 6.6.0
 _ZNK12QQuickWindow20incubationControllerEv@Qt_6 6.6.0
 _ZNK12QQuickWindow20isPersistentGraphicsEv@Qt_6 6.6.0
 _ZNK12QQuickWindow21graphicsConfigurationEv@Qt_6 6.6.0
 _ZNK12QQuickWindow22createTextureFromImageERK6QImage6QFlagsINS_19CreateTextureOptionEE@Qt_6 6.6.0
 _ZNK12QQuickWindow22createTextureFromImageERK6QImage@Qt_6 6.6.0
 _ZNK12QQuickWindow22isPersistentSceneGraphEv@Qt_6 6.6.0
 _ZNK12QQuickWindow23isSceneGraphInitializedEv@Qt_6 6.6.0
 _ZNK12QQuickWindow25effectiveDevicePixelRatioEv@Qt_6 6.6.0
 _ZNK12QQuickWindow27createTextureFromRhiTextureEP11QRhiTexture6QFlagsINS_19CreateTextureOptionEE@Qt_6 6.6.0
 _ZNK12QQuickWindow3rhiEv@Qt_6 6.6.0
 _ZNK12QQuickWindow5colorEv@Qt_6 6.6.0
 _ZNK12QQuickWindow9swapChainEv@Qt_6 6.6.0
 _ZNK13QSGRenderNode11RenderState3getEPKc@Qt_6 6.6.0
 _ZNK13QSGRenderNode12renderTargetEv@Qt_6 6.6.0
 _ZNK13QSGRenderNode13changedStatesEv@Qt_6 6.6.0
 _ZNK13QSGRenderNode13commandBufferEv@Qt_6 6.6.0
 _ZNK13QSGRenderNode16inheritedOpacityEv@Qt_6 6.6.0
 _ZNK13QSGRenderNode16projectionMatrixEv@Qt_6 6.6.0
 _ZNK13QSGRenderNode4rectEv@Qt_6 6.6.0
 _ZNK13QSGRenderNode5flagsEv@Qt_6 6.6.0
 _ZNK13QSGRenderNode6matrixEv@Qt_6 6.6.0
 _ZNK13QSGRenderNode8clipListEv@Qt_6 6.6.0
 _ZNK14QSGOpacityNode16isSubtreeBlockedEv@Qt_6 6.6.0
 _ZNK15QQuickTransform10metaObjectEv@Qt_6 6.6.0
 _ZNK15QSGGeometryNode14activeMaterialEv@Qt_6 6.6.0
 _ZNK16QSGBatchRenderer8Renderer40hasVisualizationModeWithContinuousUpdateEv@Qt_6 6.6.0
 _ZNK17QQuickPaintedItem10metaObjectEv@Qt_6 6.6.0
 _ZNK17QQuickPaintedItem11textureSizeEv@Qt_6 6.6.0
 _ZNK17QQuickPaintedItem12antialiasingEv@Qt_6 6.6.0
 _ZNK17QQuickPaintedItem12contentsSizeEv@Qt_6 6.6.0
 _ZNK17QQuickPaintedItem12renderTargetEv@Qt_6 6.6.0
 _ZNK17QQuickPaintedItem13contentsScaleEv@Qt_6 6.6.0
 _ZNK17QQuickPaintedItem14opaquePaintingEv@Qt_6 6.6.0
 _ZNK17QQuickPaintedItem15textureProviderEv@Qt_6 6.6.0
 _ZNK17QQuickPaintedItem16performanceHintsEv@Qt_6 6.6.0
 _ZNK17QQuickPaintedItem17isTextureProviderEv@Qt_6 6.6.0
 _ZNK17QQuickPaintedItem20contentsBoundingRectEv@Qt_6 6.6.0
 _ZNK17QQuickPaintedItem6mipmapEv@Qt_6 6.6.0
 _ZNK17QQuickPaintedItem9fillColorEv@Qt_6 6.6.0
 _ZNK17QSGDynamicTexture10metaObjectEv@Qt_6 6.6.0
 _ZNK17QSGMaterialShader11RenderState10deviceRectEv@Qt_6 6.6.0
 _ZNK17QSGMaterialShader11RenderState11determinantEv@Qt_6 6.6.0
 _ZNK17QSGMaterialShader11RenderState12viewportRectEv@Qt_6 6.6.0
 _ZNK17QSGMaterialShader11RenderState14combinedMatrixEv@Qt_6 6.6.0
 _ZNK17QSGMaterialShader11RenderState15modelViewMatrixEv@Qt_6 6.6.0
 _ZNK17QSGMaterialShader11RenderState16devicePixelRatioEv@Qt_6 6.6.0
 _ZNK17QSGMaterialShader11RenderState16projectionMatrixEv@Qt_6 6.6.0
 _ZNK17QSGMaterialShader11RenderState7opacityEv@Qt_6 6.6.0
 _ZNK17QSGMaterialShader25combinedImageSamplerCountEi@Qt_6 6.6.0
 _ZNK17QSGMaterialShader5flagsEv@Qt_6 6.6.0
 _ZNK17QSGSimpleRectNode4rectEv@Qt_6 6.6.0
 _ZNK17QSGSimpleRectNode5colorEv@Qt_6 6.6.0
 _ZNK18QQuickRenderTarget16devicePixelRatioEv@Qt_6 6.6.0
 _ZNK18QQuickRenderTarget16mirrorVerticallyEv@Qt_6 6.6.0
 _ZNK18QQuickRenderTarget6isNullEv@Qt_6 6.6.0
 _ZNK18QQuickRenderTarget7isEqualERKS_@Qt_6 6.6.0
 _ZNK18QQuickTextDocument10metaObjectEv@Qt_6 6.6.0
 _ZNK18QQuickTextDocument12textDocumentEv@Qt_6 6.6.0
 _ZNK18QSGTextureMaterial12createShaderEN20QSGRendererInterface10RenderModeE@Qt_6 6.6.0
 _ZNK18QSGTextureMaterial4typeEv@Qt_6 6.6.0
 _ZNK18QSGTextureProvider10metaObjectEv@Qt_6 6.6.0
 _ZNK19QQuickImageProvider10metaObjectEv@Qt_6 6.6.0
 _ZNK19QQuickImageProvider5flagsEv@Qt_6 6.6.0
 _ZNK19QQuickImageProvider9imageTypeEv@Qt_6 6.6.0
 _ZNK19QQuickImageResponse10metaObjectEv@Qt_6 6.6.0
 _ZNK19QQuickImageResponse11errorStringEv@Qt_6 6.6.0
 _ZNK19QQuickRenderControl10metaObjectEv@Qt_6 6.6.0
 _ZNK19QQuickRenderControl13commandBufferEv@Qt_6 6.6.0
 _ZNK19QQuickRenderControl3rhiEv@Qt_6 6.6.0
 _ZNK19QQuickRenderControl6windowEv@Qt_6 6.6.0
 _ZNK19QQuickRenderControl7samplesEv@Qt_6 6.6.0
 _ZNK20QQuickGraphicsDevice6isNullEv@Qt_6 6.6.0
 _ZNK20QQuickItemGrabResult10metaObjectEv@Qt_6 6.6.0
 _ZNK20QQuickItemGrabResult10saveToFileERK4QUrl@Qt_6 6.6.0
 _ZNK20QQuickItemGrabResult10saveToFileERK7QString@Qt_6 6.6.0
 _ZNK20QQuickItemGrabResult3urlEv@Qt_6 6.6.0
 _ZNK20QQuickItemGrabResult5imageEv@Qt_6 6.6.0
 _ZNK20QQuickTextureFactory10metaObjectEv@Qt_6 6.6.0
 _ZNK20QQuickTextureFactory5imageEv@Qt_6 6.6.0
 _ZNK20QSGFlatColorMaterial12createShaderEN20QSGRendererInterface10RenderModeE@Qt_6 6.6.0
 _ZNK20QSGFlatColorMaterial4typeEv@Qt_6 6.6.0
 _ZNK20QSGFlatColorMaterial7compareEPK11QSGMaterial@Qt_6 6.6.0
 _ZNK20QSGRendererInterface11getResourceEP12QQuickWindowNS_8ResourceE@Qt_6 6.6.0
 _ZNK20QSGRendererInterface11getResourceEP12QQuickWindowPKc@Qt_6 6.6.0
 _ZNK20QSGSimpleTextureNode10sourceRectEv@Qt_6 6.6.0
 _ZNK20QSGSimpleTextureNode11ownsTextureEv@Qt_6 6.6.0
 _ZNK20QSGSimpleTextureNode27textureCoordinatesTransformEv@Qt_6 6.6.0
 _ZNK20QSGSimpleTextureNode4rectEv@Qt_6 6.6.0
 _ZNK20QSGSimpleTextureNode7textureEv@Qt_6 6.6.0
 _ZNK20QSGSimpleTextureNode9filteringEv@Qt_6 6.6.0
 _ZNK22QSGVertexColorMaterial12createShaderEN20QSGRendererInterface10RenderModeE@Qt_6 6.6.0
 _ZNK22QSGVertexColorMaterial4typeEv@Qt_6 6.6.0
 _ZNK22QSGVertexColorMaterial7compareEPK11QSGMaterial@Qt_6 6.6.0
 _ZNK23QQuickFramebufferObject10metaObjectEv@Qt_6 6.6.0
 _ZNK23QQuickFramebufferObject15textureProviderEv@Qt_6 6.6.0
 _ZNK23QQuickFramebufferObject16mirrorVerticallyEv@Qt_6 6.6.0
 _ZNK23QQuickFramebufferObject17isTextureProviderEv@Qt_6 6.6.0
 _ZNK23QQuickFramebufferObject22textureFollowsItemSizeEv@Qt_6 6.6.0
 _ZNK23QQuickFramebufferObject8Renderer17framebufferObjectEv@Qt_6 6.6.0
 _ZNK24QSGOpaqueTextureMaterial12createShaderEN20QSGRendererInterface10RenderModeE@Qt_6 6.6.0
 _ZNK24QSGOpaqueTextureMaterial4typeEv@Qt_6 6.6.0
 _ZNK24QSGOpaqueTextureMaterial7compareEPK11QSGMaterial@Qt_6 6.6.0
 _ZNK27QQuickGraphicsConfiguration16deviceExtensionsEv@Qt_6 6.6.0
 _ZNK27QQuickGraphicsConfiguration17timestampsEnabledEv@Qt_6 6.6.0
 _ZNK27QQuickGraphicsConfiguration19isDebugLayerEnabledEv@Qt_6 6.6.0
 _ZNK27QQuickGraphicsConfiguration21isDebugMarkersEnabledEv@Qt_6 6.6.0
 _ZNK27QQuickGraphicsConfiguration21pipelineCacheLoadFileEv@Qt_6 6.6.0
 _ZNK27QQuickGraphicsConfiguration21pipelineCacheSaveFileEv@Qt_6 6.6.0
 _ZNK27QQuickGraphicsConfiguration21prefersSoftwareDeviceEv@Qt_6 6.6.0
 _ZNK27QQuickGraphicsConfiguration25isDepthBufferEnabledFor2DEv@Qt_6 6.6.0
 _ZNK27QQuickGraphicsConfiguration31isAutomaticPipelineCacheEnabledEv@Qt_6 6.6.0
 _ZNK7QSGNode10childCountEv@Qt_6 6.6.0
 _ZNK7QSGNode12childAtIndexEi@Qt_6 6.6.0
 _ZNK7QSGNode16isSubtreeBlockedEv@Qt_6 6.6.0
 _ZSt19piecewise_construct@Qt_6 6.6.0
 _ZTI10QQuickItem@Qt_6 6.6.0
 _ZTI10QQuickView@Qt_6 6.6.0
 _ZTI10QSGTexture@Qt_6 6.6.0
 _ZTI11QSGClipNode@Qt_6 6.6.0
 _ZTI11QSGGeometry@Qt_6 6.6.0
 _ZTI11QSGMaterial@Qt_6 6.6.0
 _ZTI11QSGRootNode@Qt_6 6.6.0
 _ZTI12QQmlRefCount@Qt_6 6.6.0
 _ZTI12QQuickWindow@Qt_6 6.6.0
 _ZTI12QSGImageNode@Qt_6 6.6.0
 _ZTI13QSGRenderNode@Qt_6 6.6.0
 _ZTI14QSGNodeVisitor@Qt_6 6.6.0
 _ZTI14QSGOpacityNode@Qt_6 6.6.0
 _ZTI15QQuickTransform@Qt_6 6.6.0
 _ZTI15QSGGeometryNode@Qt_6 6.6.0
 _ZTI16QQmlCustomParser@Qt_6 6.6.0
 _ZTI16QSGNinePatchNode@Qt_6 6.6.0
 _ZTI16QSGRectangleNode@Qt_6 6.6.0
 _ZTI16QSGTransformNode@Qt_6 6.6.0
 _ZTI17QPropertyObserver@Qt_6 6.6.0
 _ZTI17QQuickPaintedItem@Qt_6 6.6.0
 _ZTI17QSGDynamicTexture@Qt_6 6.6.0
 _ZTI17QSGMaterialShader@Qt_6 6.6.0
 _ZTI17QSGSimpleRectNode@Qt_6 6.6.0
 _ZTI18QQuickTextDocument@Qt_6 6.6.0
 _ZTI18QSGTextureMaterial@Qt_6 6.6.0
 _ZTI18QSGTextureProvider@Qt_6 6.6.0
 _ZTI19QQuickImageProvider@Qt_6 6.6.0
 _ZTI19QQuickImageResponse@Qt_6 6.6.0
 _ZTI19QQuickRenderControl@Qt_6 6.6.0
 _ZTI20QQuickItemGrabResult@Qt_6 6.6.0
 _ZTI20QQuickTextureFactory@Qt_6 6.6.0
 _ZTI20QSGBasicGeometryNode@Qt_6 6.6.0
 _ZTI20QSGFlatColorMaterial@Qt_6 6.6.0
 _ZTI20QSGRendererInterface@Qt_6 6.6.0
 _ZTI20QSGSimpleTextureNode@Qt_6 6.6.0
 _ZTI22QSGVertexColorMaterial@Qt_6 6.6.0
 _ZTI23QQuickFramebufferObject@Qt_6 6.6.0
 _ZTI24QQuickAsyncImageProvider@Qt_6 6.6.0
 _ZTI24QSGOpaqueTextureMaterial@Qt_6 6.6.0
 _ZTI7QSGNode@Qt_6 6.6.0
 _ZTIFP7QObjectP10QQmlEngineP9QJSEngineE@Qt_6 6.6.0
 _ZTIN13QSGRenderNode11RenderStateE@Qt_6 6.6.0
 _ZTIN16QNativeInterface16QSGOpenGLTextureE@Qt_6 6.6.0
 _ZTIN16QNativeInterface16QSGVulkanTextureE@Qt_6 6.6.0
 _ZTIN16QSGBatchRenderer8RendererE@Qt_6 6.6.0
 _ZTIN23QQuickFramebufferObject8RendererE@Qt_6 6.6.0
 _ZTIN3QV415ExecutionEngine9DeletableE@Qt_6 6.6.0
 (arch=armel riscv64)_ZTIN9__gnu_cxx7__mutexE@Qt_6 6.6.0
 _ZTIPFP7QObjectP10QQmlEngineP9QJSEngineE@Qt_6 6.6.0
 (arch=armel riscv64)_ZTISt11_Mutex_baseILN9__gnu_cxx12_Lock_policyE1EE@Qt_6 6.6.0
 (arch=!armel !riscv64)_ZTISt11_Mutex_baseILN9__gnu_cxx12_Lock_policyE2EE@Qt_6 6.6.0
 (arch=armel riscv64)_ZTISt16_Sp_counted_baseILN9__gnu_cxx12_Lock_policyE1EE@Qt_6 6.6.0
 (arch=!armel !riscv64)_ZTISt16_Sp_counted_baseILN9__gnu_cxx12_Lock_policyE2EE@Qt_6 6.6.0
 (arch=armel armhf)_ZTISt19_Sp_make_shared_tag@Qt_6 6.6.0
 _ZTIZN9QMetaType17registerConverterI5QListI10QMatrix4x4E9QIterableI13QMetaSequenceEN9QtPrivate33QSequentialIterableConvertFunctorIS3_EEEEbT1_EUlPKvPvE_@Qt_6 6.6.0
 _ZTIZN9QMetaType17registerConverterI5QListI11QColorSpaceE9QIterableI13QMetaSequenceEN9QtPrivate33QSequentialIterableConvertFunctorIS3_EEEEbT1_EUlPKvPvE_@Qt_6 6.6.0
 _ZTIZN9QMetaType17registerConverterI5QListI11QEventPointE9QIterableI13QMetaSequenceEN9QtPrivate33QSequentialIterableConvertFunctorIS3_EEEEbT1_EUlPKvPvE_@Qt_6 6.6.0
 _ZTIZN9QMetaType17registerConverterI5QListI11QQuaternionE9QIterableI13QMetaSequenceEN9QtPrivate33QSequentialIterableConvertFunctorIS3_EEEEbT1_EUlPKvPvE_@Qt_6 6.6.0
 _ZTIZN9QMetaType17registerConverterI5QListI23QPointingDeviceUniqueIdE9QIterableI13QMetaSequenceEN9QtPrivate33QSequentialIterableConvertFunctorIS3_EEEEbT1_EUlPKvPvE_@Qt_6 6.6.0
 _ZTIZN9QMetaType17registerConverterI5QListI4QUrlE9QIterableI13QMetaSequenceEN9QtPrivate33QSequentialIterableConvertFunctorIS3_EEEEbT1_EUlPKvPvE_@Qt_6 6.6.0
 _ZTIZN9QMetaType17registerConverterI5QListI5QFontE9QIterableI13QMetaSequenceEN9QtPrivate33QSequentialIterableConvertFunctorIS3_EEEEbT1_EUlPKvPvE_@Qt_6 6.6.0
 _ZTIZN9QMetaType17registerConverterI5QListI6QColorE9QIterableI13QMetaSequenceEN9QtPrivate33QSequentialIterableConvertFunctorIS3_EEEEbT1_EUlPKvPvE_@Qt_6 6.6.0
 _ZTIZN9QMetaType17registerConverterI5QListI6QImageE9QIterableI13QMetaSequenceEN9QtPrivate33QSequentialIterableConvertFunctorIS3_EEEEbT1_EUlPKvPvE_@Qt_6 6.6.0
 _ZTIZN9QMetaType17registerConverterI5QListI7QPointFE9QIterableI13QMetaSequenceEN9QtPrivate33QSequentialIterableConvertFunctorIS3_EEEEbT1_EUlPKvPvE_@Qt_6 6.6.0
 _ZTIZN9QMetaType17registerConverterI5QListI9QPolygonFE9QIterableI13QMetaSequenceEN9QtPrivate33QSequentialIterableConvertFunctorIS3_EEEEbT1_EUlPKvPvE_@Qt_6 6.6.0
 _ZTIZN9QMetaType17registerConverterI5QListI9QVector2DE9QIterableI13QMetaSequenceEN9QtPrivate33QSequentialIterableConvertFunctorIS3_EEEEbT1_EUlPKvPvE_@Qt_6 6.6.0
 _ZTIZN9QMetaType17registerConverterI5QListI9QVector3DE9QIterableI13QMetaSequenceEN9QtPrivate33QSequentialIterableConvertFunctorIS3_EEEEbT1_EUlPKvPvE_@Qt_6 6.6.0
 _ZTIZN9QMetaType17registerConverterI5QListI9QVector4DE9QIterableI13QMetaSequenceEN9QtPrivate33QSequentialIterableConvertFunctorIS3_EEEEbT1_EUlPKvPvE_@Qt_6 6.6.0
 _ZTIZN9QMetaType17registerConverterI5QListIP7QObjectE9QIterableI13QMetaSequenceEN9QtPrivate33QSequentialIterableConvertFunctorIS4_EEEEbT1_EUlPKvPvE_@Qt_6 6.6.0
 _ZTIZN9QMetaType17registerConverterI5QListIS1_I7QPointFEE9QIterableI13QMetaSequenceEN9QtPrivate33QSequentialIterableConvertFunctorIS4_EEEEbT1_EUlPKvPvE_@Qt_6 6.6.0
 _ZTIZN9QMetaType17registerConverterI5QListIiE9QIterableI13QMetaSequenceEN9QtPrivate33QSequentialIterableConvertFunctorIS2_EEEEbT1_EUlPKvPvE_@Qt_6 6.6.0
 _ZTIZN9QMetaType19registerMutableViewI5QListI10QMatrix4x4E9QIterableI13QMetaSequenceEN9QtPrivate37QSequentialIterableMutableViewFunctorIS3_EEEEbT1_EUlPvSB_E_@Qt_6 6.6.0
 _ZTIZN9QMetaType19registerMutableViewI5QListI11QColorSpaceE9QIterableI13QMetaSequenceEN9QtPrivate37QSequentialIterableMutableViewFunctorIS3_EEEEbT1_EUlPvSB_E_@Qt_6 6.6.0
 _ZTIZN9QMetaType19registerMutableViewI5QListI11QEventPointE9QIterableI13QMetaSequenceEN9QtPrivate37QSequentialIterableMutableViewFunctorIS3_EEEEbT1_EUlPvSB_E_@Qt_6 6.6.0
 _ZTIZN9QMetaType19registerMutableViewI5QListI11QQuaternionE9QIterableI13QMetaSequenceEN9QtPrivate37QSequentialIterableMutableViewFunctorIS3_EEEEbT1_EUlPvSB_E_@Qt_6 6.6.0
 _ZTIZN9QMetaType19registerMutableViewI5QListI23QPointingDeviceUniqueIdE9QIterableI13QMetaSequenceEN9QtPrivate37QSequentialIterableMutableViewFunctorIS3_EEEEbT1_EUlPvSB_E_@Qt_6 6.6.0
 _ZTIZN9QMetaType19registerMutableViewI5QListI4QUrlE9QIterableI13QMetaSequenceEN9QtPrivate37QSequentialIterableMutableViewFunctorIS3_EEEEbT1_EUlPvSB_E_@Qt_6 6.6.0
 _ZTIZN9QMetaType19registerMutableViewI5QListI5QFontE9QIterableI13QMetaSequenceEN9QtPrivate37QSequentialIterableMutableViewFunctorIS3_EEEEbT1_EUlPvSB_E_@Qt_6 6.6.0
 _ZTIZN9QMetaType19registerMutableViewI5QListI6QColorE9QIterableI13QMetaSequenceEN9QtPrivate37QSequentialIterableMutableViewFunctorIS3_EEEEbT1_EUlPvSB_E_@Qt_6 6.6.0
 _ZTIZN9QMetaType19registerMutableViewI5QListI6QImageE9QIterableI13QMetaSequenceEN9QtPrivate37QSequentialIterableMutableViewFunctorIS3_EEEEbT1_EUlPvSB_E_@Qt_6 6.6.0
 _ZTIZN9QMetaType19registerMutableViewI5QListI7QPointFE9QIterableI13QMetaSequenceEN9QtPrivate37QSequentialIterableMutableViewFunctorIS3_EEEEbT1_EUlPvSB_E_@Qt_6 6.6.0
 _ZTIZN9QMetaType19registerMutableViewI5QListI9QPolygonFE9QIterableI13QMetaSequenceEN9QtPrivate37QSequentialIterableMutableViewFunctorIS3_EEEEbT1_EUlPvSB_E_@Qt_6 6.6.0
 _ZTIZN9QMetaType19registerMutableViewI5QListI9QVector2DE9QIterableI13QMetaSequenceEN9QtPrivate37QSequentialIterableMutableViewFunctorIS3_EEEEbT1_EUlPvSB_E_@Qt_6 6.6.0
 _ZTIZN9QMetaType19registerMutableViewI5QListI9QVector3DE9QIterableI13QMetaSequenceEN9QtPrivate37QSequentialIterableMutableViewFunctorIS3_EEEEbT1_EUlPvSB_E_@Qt_6 6.6.0
 _ZTIZN9QMetaType19registerMutableViewI5QListI9QVector4DE9QIterableI13QMetaSequenceEN9QtPrivate37QSequentialIterableMutableViewFunctorIS3_EEEEbT1_EUlPvSB_E_@Qt_6 6.6.0
 _ZTIZN9QMetaType19registerMutableViewI5QListIP7QObjectE9QIterableI13QMetaSequenceEN9QtPrivate37QSequentialIterableMutableViewFunctorIS4_EEEEbT1_EUlPvSC_E_@Qt_6 6.6.0
 _ZTIZN9QMetaType19registerMutableViewI5QListIS1_I7QPointFEE9QIterableI13QMetaSequenceEN9QtPrivate37QSequentialIterableMutableViewFunctorIS4_EEEEbT1_EUlPvSC_E_@Qt_6 6.6.0
 _ZTIZN9QMetaType19registerMutableViewI5QListIiE9QIterableI13QMetaSequenceEN9QtPrivate37QSequentialIterableMutableViewFunctorIS2_EEEEbT1_EUlPvSA_E_@Qt_6 6.6.0
 _ZTS10QQuickItem@Qt_6 6.6.0
 _ZTS10QQuickView@Qt_6 6.6.0
 _ZTS10QSGTexture@Qt_6 6.6.0
 _ZTS11QSGClipNode@Qt_6 6.6.0
 _ZTS11QSGGeometry@Qt_6 6.6.0
 _ZTS11QSGMaterial@Qt_6 6.6.0
 _ZTS11QSGRootNode@Qt_6 6.6.0
 _ZTS12QQmlRefCount@Qt_6 6.6.0
 _ZTS12QQuickWindow@Qt_6 6.6.0
 _ZTS12QSGImageNode@Qt_6 6.6.0
 _ZTS13QSGRenderNode@Qt_6 6.6.0
 _ZTS14QSGNodeVisitor@Qt_6 6.6.0
 _ZTS14QSGOpacityNode@Qt_6 6.6.0
 _ZTS15QQuickTransform@Qt_6 6.6.0
 _ZTS15QSGGeometryNode@Qt_6 6.6.0
 _ZTS16QQmlCustomParser@Qt_6 6.6.0
 _ZTS16QSGNinePatchNode@Qt_6 6.6.0
 _ZTS16QSGRectangleNode@Qt_6 6.6.0
 _ZTS16QSGTransformNode@Qt_6 6.6.0
 _ZTS17QPropertyObserver@Qt_6 6.6.0
 _ZTS17QQuickPaintedItem@Qt_6 6.6.0
 _ZTS17QSGDynamicTexture@Qt_6 6.6.0
 _ZTS17QSGMaterialShader@Qt_6 6.6.0
 _ZTS17QSGSimpleRectNode@Qt_6 6.6.0
 _ZTS18QQuickTextDocument@Qt_6 6.6.0
 _ZTS18QSGTextureMaterial@Qt_6 6.6.0
 _ZTS18QSGTextureProvider@Qt_6 6.6.0
 _ZTS19QQuickImageProvider@Qt_6 6.6.0
 _ZTS19QQuickImageResponse@Qt_6 6.6.0
 _ZTS19QQuickRenderControl@Qt_6 6.6.0
 _ZTS20QQuickItemGrabResult@Qt_6 6.6.0
 _ZTS20QQuickTextureFactory@Qt_6 6.6.0
 _ZTS20QSGBasicGeometryNode@Qt_6 6.6.0
 _ZTS20QSGFlatColorMaterial@Qt_6 6.6.0
 _ZTS20QSGRendererInterface@Qt_6 6.6.0
 _ZTS20QSGSimpleTextureNode@Qt_6 6.6.0
 _ZTS22QSGVertexColorMaterial@Qt_6 6.6.0
 _ZTS23QQuickFramebufferObject@Qt_6 6.6.0
 _ZTS24QQuickAsyncImageProvider@Qt_6 6.6.0
 _ZTS24QSGOpaqueTextureMaterial@Qt_6 6.6.0
 _ZTS7QSGNode@Qt_6 6.6.0
 _ZTSFP7QObjectP10QQmlEngineP9QJSEngineE@Qt_6 6.6.0
 _ZTSN13QSGRenderNode11RenderStateE@Qt_6 6.6.0
 _ZTSN16QNativeInterface16QSGOpenGLTextureE@Qt_6 6.6.0
 _ZTSN16QNativeInterface16QSGVulkanTextureE@Qt_6 6.6.0
 _ZTSN16QSGBatchRenderer8RendererE@Qt_6 6.6.0
 _ZTSN23QQuickFramebufferObject8RendererE@Qt_6 6.6.0
 _ZTSN3QV415ExecutionEngine9DeletableE@Qt_6 6.6.0
 (arch=armel riscv64)_ZTSN9__gnu_cxx7__mutexE@Qt_6 6.6.0
 _ZTSPFP7QObjectP10QQmlEngineP9QJSEngineE@Qt_6 6.6.0
 (arch=armel riscv64)_ZTSSt11_Mutex_baseILN9__gnu_cxx12_Lock_policyE1EE@Qt_6 6.6.0
 (arch=!armel !riscv64)_ZTSSt11_Mutex_baseILN9__gnu_cxx12_Lock_policyE2EE@Qt_6 6.6.0
 (arch=armel riscv64)_ZTSSt16_Sp_counted_baseILN9__gnu_cxx12_Lock_policyE1EE@Qt_6 6.6.0
 (arch=!armel !riscv64)_ZTSSt16_Sp_counted_baseILN9__gnu_cxx12_Lock_policyE2EE@Qt_6 6.6.0
 _ZTSSt19_Sp_make_shared_tag@Qt_6 6.6.0
 _ZTSZN9QMetaType17registerConverterI5QListI10QMatrix4x4E9QIterableI13QMetaSequenceEN9QtPrivate33QSequentialIterableConvertFunctorIS3_EEEEbT1_EUlPKvPvE_@Qt_6 6.6.0
 _ZTSZN9QMetaType17registerConverterI5QListI11QColorSpaceE9QIterableI13QMetaSequenceEN9QtPrivate33QSequentialIterableConvertFunctorIS3_EEEEbT1_EUlPKvPvE_@Qt_6 6.6.0
 _ZTSZN9QMetaType17registerConverterI5QListI11QEventPointE9QIterableI13QMetaSequenceEN9QtPrivate33QSequentialIterableConvertFunctorIS3_EEEEbT1_EUlPKvPvE_@Qt_6 6.6.0
 _ZTSZN9QMetaType17registerConverterI5QListI11QQuaternionE9QIterableI13QMetaSequenceEN9QtPrivate33QSequentialIterableConvertFunctorIS3_EEEEbT1_EUlPKvPvE_@Qt_6 6.6.0
 _ZTSZN9QMetaType17registerConverterI5QListI23QPointingDeviceUniqueIdE9QIterableI13QMetaSequenceEN9QtPrivate33QSequentialIterableConvertFunctorIS3_EEEEbT1_EUlPKvPvE_@Qt_6 6.6.0
 _ZTSZN9QMetaType17registerConverterI5QListI4QUrlE9QIterableI13QMetaSequenceEN9QtPrivate33QSequentialIterableConvertFunctorIS3_EEEEbT1_EUlPKvPvE_@Qt_6 6.6.0
 _ZTSZN9QMetaType17registerConverterI5QListI5QFontE9QIterableI13QMetaSequenceEN9QtPrivate33QSequentialIterableConvertFunctorIS3_EEEEbT1_EUlPKvPvE_@Qt_6 6.6.0
 _ZTSZN9QMetaType17registerConverterI5QListI6QColorE9QIterableI13QMetaSequenceEN9QtPrivate33QSequentialIterableConvertFunctorIS3_EEEEbT1_EUlPKvPvE_@Qt_6 6.6.0
 _ZTSZN9QMetaType17registerConverterI5QListI6QImageE9QIterableI13QMetaSequenceEN9QtPrivate33QSequentialIterableConvertFunctorIS3_EEEEbT1_EUlPKvPvE_@Qt_6 6.6.0
 _ZTSZN9QMetaType17registerConverterI5QListI7QPointFE9QIterableI13QMetaSequenceEN9QtPrivate33QSequentialIterableConvertFunctorIS3_EEEEbT1_EUlPKvPvE_@Qt_6 6.6.0
 _ZTSZN9QMetaType17registerConverterI5QListI9QPolygonFE9QIterableI13QMetaSequenceEN9QtPrivate33QSequentialIterableConvertFunctorIS3_EEEEbT1_EUlPKvPvE_@Qt_6 6.6.0
 _ZTSZN9QMetaType17registerConverterI5QListI9QVector2DE9QIterableI13QMetaSequenceEN9QtPrivate33QSequentialIterableConvertFunctorIS3_EEEEbT1_EUlPKvPvE_@Qt_6 6.6.0
 _ZTSZN9QMetaType17registerConverterI5QListI9QVector3DE9QIterableI13QMetaSequenceEN9QtPrivate33QSequentialIterableConvertFunctorIS3_EEEEbT1_EUlPKvPvE_@Qt_6 6.6.0
 _ZTSZN9QMetaType17registerConverterI5QListI9QVector4DE9QIterableI13QMetaSequenceEN9QtPrivate33QSequentialIterableConvertFunctorIS3_EEEEbT1_EUlPKvPvE_@Qt_6 6.6.0
 _ZTSZN9QMetaType17registerConverterI5QListIP7QObjectE9QIterableI13QMetaSequenceEN9QtPrivate33QSequentialIterableConvertFunctorIS4_EEEEbT1_EUlPKvPvE_@Qt_6 6.6.0
 _ZTSZN9QMetaType17registerConverterI5QListIS1_I7QPointFEE9QIterableI13QMetaSequenceEN9QtPrivate33QSequentialIterableConvertFunctorIS4_EEEEbT1_EUlPKvPvE_@Qt_6 6.6.0
 _ZTSZN9QMetaType17registerConverterI5QListIiE9QIterableI13QMetaSequenceEN9QtPrivate33QSequentialIterableConvertFunctorIS2_EEEEbT1_EUlPKvPvE_@Qt_6 6.6.0
 _ZTSZN9QMetaType19registerMutableViewI5QListI10QMatrix4x4E9QIterableI13QMetaSequenceEN9QtPrivate37QSequentialIterableMutableViewFunctorIS3_EEEEbT1_EUlPvSB_E_@Qt_6 6.6.0
 _ZTSZN9QMetaType19registerMutableViewI5QListI11QColorSpaceE9QIterableI13QMetaSequenceEN9QtPrivate37QSequentialIterableMutableViewFunctorIS3_EEEEbT1_EUlPvSB_E_@Qt_6 6.6.0
 _ZTSZN9QMetaType19registerMutableViewI5QListI11QEventPointE9QIterableI13QMetaSequenceEN9QtPrivate37QSequentialIterableMutableViewFunctorIS3_EEEEbT1_EUlPvSB_E_@Qt_6 6.6.0
 _ZTSZN9QMetaType19registerMutableViewI5QListI11QQuaternionE9QIterableI13QMetaSequenceEN9QtPrivate37QSequentialIterableMutableViewFunctorIS3_EEEEbT1_EUlPvSB_E_@Qt_6 6.6.0
 _ZTSZN9QMetaType19registerMutableViewI5QListI23QPointingDeviceUniqueIdE9QIterableI13QMetaSequenceEN9QtPrivate37QSequentialIterableMutableViewFunctorIS3_EEEEbT1_EUlPvSB_E_@Qt_6 6.6.0
 _ZTSZN9QMetaType19registerMutableViewI5QListI4QUrlE9QIterableI13QMetaSequenceEN9QtPrivate37QSequentialIterableMutableViewFunctorIS3_EEEEbT1_EUlPvSB_E_@Qt_6 6.6.0
 _ZTSZN9QMetaType19registerMutableViewI5QListI5QFontE9QIterableI13QMetaSequenceEN9QtPrivate37QSequentialIterableMutableViewFunctorIS3_EEEEbT1_EUlPvSB_E_@Qt_6 6.6.0
 _ZTSZN9QMetaType19registerMutableViewI5QListI6QColorE9QIterableI13QMetaSequenceEN9QtPrivate37QSequentialIterableMutableViewFunctorIS3_EEEEbT1_EUlPvSB_E_@Qt_6 6.6.0
 _ZTSZN9QMetaType19registerMutableViewI5QListI6QImageE9QIterableI13QMetaSequenceEN9QtPrivate37QSequentialIterableMutableViewFunctorIS3_EEEEbT1_EUlPvSB_E_@Qt_6 6.6.0
 _ZTSZN9QMetaType19registerMutableViewI5QListI7QPointFE9QIterableI13QMetaSequenceEN9QtPrivate37QSequentialIterableMutableViewFunctorIS3_EEEEbT1_EUlPvSB_E_@Qt_6 6.6.0
 _ZTSZN9QMetaType19registerMutableViewI5QListI9QPolygonFE9QIterableI13QMetaSequenceEN9QtPrivate37QSequentialIterableMutableViewFunctorIS3_EEEEbT1_EUlPvSB_E_@Qt_6 6.6.0
 _ZTSZN9QMetaType19registerMutableViewI5QListI9QVector2DE9QIterableI13QMetaSequenceEN9QtPrivate37QSequentialIterableMutableViewFunctorIS3_EEEEbT1_EUlPvSB_E_@Qt_6 6.6.0
 _ZTSZN9QMetaType19registerMutableViewI5QListI9QVector3DE9QIterableI13QMetaSequenceEN9QtPrivate37QSequentialIterableMutableViewFunctorIS3_EEEEbT1_EUlPvSB_E_@Qt_6 6.6.0
 _ZTSZN9QMetaType19registerMutableViewI5QListI9QVector4DE9QIterableI13QMetaSequenceEN9QtPrivate37QSequentialIterableMutableViewFunctorIS3_EEEEbT1_EUlPvSB_E_@Qt_6 6.6.0
 _ZTSZN9QMetaType19registerMutableViewI5QListIP7QObjectE9QIterableI13QMetaSequenceEN9QtPrivate37QSequentialIterableMutableViewFunctorIS4_EEEEbT1_EUlPvSC_E_@Qt_6 6.6.0
 _ZTSZN9QMetaType19registerMutableViewI5QListIS1_I7QPointFEE9QIterableI13QMetaSequenceEN9QtPrivate37QSequentialIterableMutableViewFunctorIS4_EEEEbT1_EUlPvSC_E_@Qt_6 6.6.0
 _ZTSZN9QMetaType19registerMutableViewI5QListIiE9QIterableI13QMetaSequenceEN9QtPrivate37QSequentialIterableMutableViewFunctorIS2_EEEEbT1_EUlPvSA_E_@Qt_6 6.6.0
 _ZTV10QQuickItem@Qt_6 6.6.0
 _ZTV10QQuickView@Qt_6 6.6.0
 _ZTV10QSGTexture@Qt_6 6.6.0
 _ZTV11QSGClipNode@Qt_6 6.6.0
 _ZTV11QSGGeometry@Qt_6 6.6.0
 _ZTV11QSGMaterial@Qt_6 6.6.0
 _ZTV11QSGRootNode@Qt_6 6.6.0
 _ZTV12QQuickWindow@Qt_6 6.6.0
 _ZTV13QSGRenderNode@Qt_6 6.6.0
 _ZTV14QSGNodeVisitor@Qt_6 6.6.0
 _ZTV14QSGOpacityNode@Qt_6 6.6.0
 _ZTV15QQuickTransform@Qt_6 6.6.0
 _ZTV15QSGGeometryNode@Qt_6 6.6.0
 _ZTV16QSGTransformNode@Qt_6 6.6.0
 _ZTV17QQuickPaintedItem@Qt_6 6.6.0
 _ZTV17QSGDynamicTexture@Qt_6 6.6.0
 _ZTV17QSGMaterialShader@Qt_6 6.6.0
 _ZTV18QQuickTextDocument@Qt_6 6.6.0
 _ZTV18QSGTextureMaterial@Qt_6 6.6.0
 _ZTV18QSGTextureProvider@Qt_6 6.6.0
 _ZTV19QQuickImageProvider@Qt_6 6.6.0
 _ZTV19QQuickImageResponse@Qt_6 6.6.0
 _ZTV19QQuickRenderControl@Qt_6 6.6.0
 _ZTV20QQuickItemGrabResult@Qt_6 6.6.0
 _ZTV20QQuickTextureFactory@Qt_6 6.6.0
 _ZTV20QSGBasicGeometryNode@Qt_6 6.6.0
 _ZTV20QSGFlatColorMaterial@Qt_6 6.6.0
 _ZTV20QSGRendererInterface@Qt_6 6.6.0
 _ZTV20QSGSimpleTextureNode@Qt_6 6.6.0
 _ZTV22QSGVertexColorMaterial@Qt_6 6.6.0
 _ZTV23QQuickFramebufferObject@Qt_6 6.6.0
 _ZTV24QQuickAsyncImageProvider@Qt_6 6.6.0
 _ZTV24QSGOpaqueTextureMaterial@Qt_6 6.6.0
 _ZTV7QSGNode@Qt_6 6.6.0
 _ZTVN13QSGRenderNode11RenderStateE@Qt_6 6.6.0
 _ZTVN16QNativeInterface16QSGOpenGLTextureE@Qt_6 6.6.0
 _ZTVN16QNativeInterface16QSGVulkanTextureE@Qt_6 6.6.0
 _ZTVN16QSGBatchRenderer8RendererE@Qt_6 6.6.0
 _ZTVN23QQuickFramebufferObject8RendererE@Qt_6 6.6.0
 (optional=templinst)_ZZN9QMetaType21registerConverterImplI5QListI10QMatrix4x4E9QIterableI13QMetaSequenceEEEbSt8functionIFbPKvPvEES_S_E10unregister@Qt_6 6.6.0
 (optional=templinst)_ZZN9QMetaType21registerConverterImplI5QListI11QColorSpaceE9QIterableI13QMetaSequenceEEEbSt8functionIFbPKvPvEES_S_E10unregister@Qt_6 6.6.0
 (optional=templinst)_ZZN9QMetaType21registerConverterImplI5QListI11QEventPointE9QIterableI13QMetaSequenceEEEbSt8functionIFbPKvPvEES_S_E10unregister@Qt_6 6.6.0
 (optional=templinst)_ZZN9QMetaType21registerConverterImplI5QListI11QQuaternionE9QIterableI13QMetaSequenceEEEbSt8functionIFbPKvPvEES_S_E10unregister@Qt_6 6.6.0
 (optional=templinst)_ZZN9QMetaType21registerConverterImplI5QListI23QPointingDeviceUniqueIdE9QIterableI13QMetaSequenceEEEbSt8functionIFbPKvPvEES_S_E10unregister@Qt_6 6.6.0
 (optional=templinst)_ZZN9QMetaType21registerConverterImplI5QListI4QUrlE9QIterableI13QMetaSequenceEEEbSt8functionIFbPKvPvEES_S_E10unregister@Qt_6 6.6.0
 (optional=templinst)_ZZN9QMetaType21registerConverterImplI5QListI5QFontE9QIterableI13QMetaSequenceEEEbSt8functionIFbPKvPvEES_S_E10unregister@Qt_6 6.6.0
 (optional=templinst)_ZZN9QMetaType21registerConverterImplI5QListI6QColorE9QIterableI13QMetaSequenceEEEbSt8functionIFbPKvPvEES_S_E10unregister@Qt_6 6.6.0
 (optional=templinst)_ZZN9QMetaType21registerConverterImplI5QListI6QImageE9QIterableI13QMetaSequenceEEEbSt8functionIFbPKvPvEES_S_E10unregister@Qt_6 6.6.0
 (optional=templinst)_ZZN9QMetaType21registerConverterImplI5QListI7QPointFE9QIterableI13QMetaSequenceEEEbSt8functionIFbPKvPvEES_S_E10unregister@Qt_6 6.6.0
 (optional=templinst)_ZZN9QMetaType21registerConverterImplI5QListI9QPolygonFE9QIterableI13QMetaSequenceEEEbSt8functionIFbPKvPvEES_S_E10unregister@Qt_6 6.6.0
 (optional=templinst)_ZZN9QMetaType21registerConverterImplI5QListI9QVector2DE9QIterableI13QMetaSequenceEEEbSt8functionIFbPKvPvEES_S_E10unregister@Qt_6 6.6.0
 (optional=templinst)_ZZN9QMetaType21registerConverterImplI5QListI9QVector3DE9QIterableI13QMetaSequenceEEEbSt8functionIFbPKvPvEES_S_E10unregister@Qt_6 6.6.0
 (optional=templinst)_ZZN9QMetaType21registerConverterImplI5QListI9QVector4DE9QIterableI13QMetaSequenceEEEbSt8functionIFbPKvPvEES_S_E10unregister@Qt_6 6.6.0
 (optional=templinst)_ZZN9QMetaType21registerConverterImplI5QListIP7QObjectE9QIterableI13QMetaSequenceEEEbSt8functionIFbPKvPvEES_S_E10unregister@Qt_6 6.6.0
 (optional=templinst)_ZZN9QMetaType21registerConverterImplI5QListIS1_I7QPointFEE9QIterableI13QMetaSequenceEEEbSt8functionIFbPKvPvEES_S_E10unregister@Qt_6 6.6.0
 (optional=templinst)_ZZN9QMetaType21registerConverterImplI5QListIiE9QIterableI13QMetaSequenceEEEbSt8functionIFbPKvPvEES_S_E10unregister@Qt_6 6.6.0
 (optional=templinst)_ZZN9QMetaType23registerMutableViewImplI5QListI10QMatrix4x4E9QIterableI13QMetaSequenceEEEbSt8functionIFbPvS8_EES_S_E10unregister@Qt_6 6.6.0
 (optional=templinst)_ZZN9QMetaType23registerMutableViewImplI5QListI11QColorSpaceE9QIterableI13QMetaSequenceEEEbSt8functionIFbPvS8_EES_S_E10unregister@Qt_6 6.6.0
 (optional=templinst)_ZZN9QMetaType23registerMutableViewImplI5QListI11QEventPointE9QIterableI13QMetaSequenceEEEbSt8functionIFbPvS8_EES_S_E10unregister@Qt_6 6.6.0
 (optional=templinst)_ZZN9QMetaType23registerMutableViewImplI5QListI11QQuaternionE9QIterableI13QMetaSequenceEEEbSt8functionIFbPvS8_EES_S_E10unregister@Qt_6 6.6.0
 (optional=templinst)_ZZN9QMetaType23registerMutableViewImplI5QListI23QPointingDeviceUniqueIdE9QIterableI13QMetaSequenceEEEbSt8functionIFbPvS8_EES_S_E10unregister@Qt_6 6.6.0
 (optional=templinst)_ZZN9QMetaType23registerMutableViewImplI5QListI4QUrlE9QIterableI13QMetaSequenceEEEbSt8functionIFbPvS8_EES_S_E10unregister@Qt_6 6.6.0
 (optional=templinst)_ZZN9QMetaType23registerMutableViewImplI5QListI5QFontE9QIterableI13QMetaSequenceEEEbSt8functionIFbPvS8_EES_S_E10unregister@Qt_6 6.6.0
 (optional=templinst)_ZZN9QMetaType23registerMutableViewImplI5QListI6QColorE9QIterableI13QMetaSequenceEEEbSt8functionIFbPvS8_EES_S_E10unregister@Qt_6 6.6.0
 (optional=templinst)_ZZN9QMetaType23registerMutableViewImplI5QListI6QImageE9QIterableI13QMetaSequenceEEEbSt8functionIFbPvS8_EES_S_E10unregister@Qt_6 6.6.0
 (optional=templinst)_ZZN9QMetaType23registerMutableViewImplI5QListI7QPointFE9QIterableI13QMetaSequenceEEEbSt8functionIFbPvS8_EES_S_E10unregister@Qt_6 6.6.0
 (optional=templinst)_ZZN9QMetaType23registerMutableViewImplI5QListI9QPolygonFE9QIterableI13QMetaSequenceEEEbSt8functionIFbPvS8_EES_S_E10unregister@Qt_6 6.6.0
 (optional=templinst)_ZZN9QMetaType23registerMutableViewImplI5QListI9QVector2DE9QIterableI13QMetaSequenceEEEbSt8functionIFbPvS8_EES_S_E10unregister@Qt_6 6.6.0
 (optional=templinst)_ZZN9QMetaType23registerMutableViewImplI5QListI9QVector3DE9QIterableI13QMetaSequenceEEEbSt8functionIFbPvS8_EES_S_E10unregister@Qt_6 6.6.0
 (optional=templinst)_ZZN9QMetaType23registerMutableViewImplI5QListI9QVector4DE9QIterableI13QMetaSequenceEEEbSt8functionIFbPvS8_EES_S_E10unregister@Qt_6 6.6.0
 (optional=templinst)_ZZN9QMetaType23registerMutableViewImplI5QListIP7QObjectE9QIterableI13QMetaSequenceEEEbSt8functionIFbPvS9_EES_S_E10unregister@Qt_6 6.6.0
 (optional=templinst)_ZZN9QMetaType23registerMutableViewImplI5QListIS1_I7QPointFEE9QIterableI13QMetaSequenceEEEbSt8functionIFbPvS9_EES_S_E10unregister@Qt_6 6.6.0
 (optional=templinst)_ZZN9QMetaType23registerMutableViewImplI5QListIiE9QIterableI13QMetaSequenceEEEbSt8functionIFbPvS7_EES_S_E10unregister@Qt_6 6.6.0
 _ZZNSt19_Sp_make_shared_tag5_S_tiEvE5__tag@Qt_6 6.6.0
 _Zls6QDebugP10QQuickItem@Qt_6 6.6.0
 _Zls6QDebugPK11QSGRootNode@Qt_6 6.6.0
 _Zls6QDebugPK12QQuickWindow@Qt_6 6.6.0
 _Zls6QDebugPK14QSGOpacityNode@Qt_6 6.6.0
 _Zls6QDebugPK15QSGGeometryNode@Qt_6 6.6.0
 _Zls6QDebugPK16QSGTransformNode@Qt_6 6.6.0
 _Zls6QDebugPK7QSGNode@Qt_6 6.6.0
 _Zls6QDebugRK27QQuickGraphicsConfiguration@Qt_6 6.6.0
 (c++)"non-virtual thunk to QQuickItem::classBegin()@Qt_6" 6.6.0
 (c++)"non-virtual thunk to QQuickItem::componentComplete()@Qt_6" 6.6.0
 (c++)"non-virtual thunk to QQuickItem::~QQuickItem()@Qt_6" 6.6.0
 (c++)"non-virtual thunk to QQuickPaintedItem::~QQuickPaintedItem()@Qt_6" 6.6.0
 (c++)"non-virtual thunk to QQuickView::~QQuickView()@Qt_6" 6.6.0
 (c++)"non-virtual thunk to QQuickWindow::~QQuickWindow()@Qt_6" 6.6.0
