# SymbolsHelper-Confirmed: 6.4.0 amd64
libQt6QuickDialogs2.so.6 libqt6quickdialogs2-6 #MINVER#
| libqt6quickdialogs2-6 #MINVER#, qt6-declarative-abi (= 6.4.2)
* Build-Depends-Packages: qt6-declarative-dev, qt6-declarative-private-dev
 _Z34qml_register_types_QtQuick_Dialogsv@Base 6.2.0
 _ZGVZN9QMetaType21registerConverterImplI5QListI4QUrlE9QIterableI13QMetaSequenceEEEbSt8functionIFbPKvPvEES_S_E10unregister@Base 6.2.0
 _ZGVZN9QMetaType23registerMutableViewImplI5QListI4QUrlE9QIterableI13QMetaSequenceEEEbSt8functionIFbPvS8_EES_S_E10unregister@Base 6.2.0
 _ZN13QMetaSequence12MetaSequenceI5QListI4QUrlEE5valueE@Base 6.2.0
 _ZN16QQuickFileDialog10setOptionsE6QFlagsIN18QFileDialogOptions16FileDialogOptionEE@Base 6.2.0
 _ZN16QQuickFileDialog11qt_metacallEN11QMetaObject4CallEiPPv@Base 6.2.0
 _ZN16QQuickFileDialog11qt_metacastEPKc@Base 6.2.0
 _ZN16QQuickFileDialog11setFileModeENS_8FileModeE@Base 6.2.0
 _ZN16QQuickFileDialog12resetOptionsEv@Base 6.2.0
 _ZN16QQuickFileDialog14optionsChangedEv@Base 6.2.0
 _ZN16QQuickFileDialog14setAcceptLabelERK7QString@Base 6.2.0
 _ZN16QQuickFileDialog14setCurrentFileERK4QUrl@Base 6.2.0
 _ZN16QQuickFileDialog14setNameFiltersERK5QListI7QStringE@Base 6.2.0
 _ZN16QQuickFileDialog14setRejectLabelERK7QString@Base 6.2.0
 _ZN16QQuickFileDialog15fileModeChangedEv@Base 6.2.0
 _ZN16QQuickFileDialog15setCurrentFilesERK5QListI4QUrlE@Base 6.2.0
 _ZN16QQuickFileDialog15setSelectedFileERK4QUrl@Base 6.4.0
 _ZN16QQuickFileDialog16resetAcceptLabelEv@Base 6.2.0
 _ZN16QQuickFileDialog16resetNameFiltersEv@Base 6.2.0
 _ZN16QQuickFileDialog16resetRejectLabelEv@Base 6.2.0
 _ZN16QQuickFileDialog16setCurrentFolderERK4QUrl@Base 6.2.0
 _ZN16QQuickFileDialog16setDefaultSuffixERK7QString@Base 6.2.0
 _ZN16QQuickFileDialog16setSelectedFilesERK5QListI4QUrlE@Base 6.2.0
 _ZN16QQuickFileDialog16staticMetaObjectE@Base 6.2.0
 _ZN16QQuickFileDialog18acceptLabelChangedEv@Base 6.2.0
 _ZN16QQuickFileDialog18currentFileChangedEv@Base 6.2.0
 _ZN16QQuickFileDialog18nameFiltersChangedEv@Base 6.2.0
 _ZN16QQuickFileDialog18rejectLabelChangedEv@Base 6.2.0
 _ZN16QQuickFileDialog18resetDefaultSuffixEv@Base 6.2.0
 _ZN16QQuickFileDialog19currentFilesChangedEv@Base 6.2.0
 _ZN16QQuickFileDialog19selectedFileChangedEv@Base 6.2.0
 _ZN16QQuickFileDialog20currentFolderChangedEv@Base 6.2.0
 _ZN16QQuickFileDialog20defaultSuffixChangedEv@Base 6.2.0
 _ZN16QQuickFileDialog20selectedFilesChangedEv@Base 6.2.0
 _ZN16QQuickFileDialog6acceptEv@Base 6.2.0
 _ZN16QQuickFileDialog6onHideEP21QPlatformDialogHelper@Base 6.2.0
 _ZN16QQuickFileDialog6onShowEP21QPlatformDialogHelper@Base 6.2.0
 _ZN16QQuickFileDialog8onCreateEP21QPlatformDialogHelper@Base 6.2.0
 _ZN16QQuickFileDialogC1EP7QObject@Base 6.2.0
 _ZN16QQuickFileDialogC2EP7QObject@Base 6.2.0
 _ZN16QQuickFontDialog10setOptionsE6QFlagsIN18QFontDialogOptions16FontDialogOptionEE@Base 6.2.0
 _ZN16QQuickFontDialog11qt_metacallEN11QMetaObject4CallEiPPv@Base 6.2.0
 _ZN16QQuickFontDialog11qt_metacastEPKc@Base 6.2.0
 _ZN16QQuickFontDialog12resetOptionsEv@Base 6.2.0
 _ZN16QQuickFontDialog14optionsChangedEv@Base 6.2.0
 _ZN16QQuickFontDialog14setCurrentFontERK5QFont@Base 6.2.0
 _ZN16QQuickFontDialog15setSelectedFontERK5QFont@Base 6.2.0
 _ZN16QQuickFontDialog16staticMetaObjectE@Base 6.2.0
 _ZN16QQuickFontDialog18currentFontChangedEv@Base 6.2.0
 _ZN16QQuickFontDialog19selectedFontChangedEv@Base 6.2.0
 _ZN16QQuickFontDialog6onShowEP21QPlatformDialogHelper@Base 6.2.0
 _ZN16QQuickFontDialog8onCreateEP21QPlatformDialogHelper@Base 6.2.0
 _ZN16QQuickFontDialogC1EP7QObject@Base 6.2.0
 _ZN16QQuickFontDialogC2EP7QObject@Base 6.2.0
 _ZN17QQuickColorDialog10setOptionsE6QFlagsIN19QColorDialogOptions17ColorDialogOptionEE@Base 6.4.0
 _ZN17QQuickColorDialog11qt_metacallEN11QMetaObject4CallEiPPv@Base 6.4.0
 _ZN17QQuickColorDialog11qt_metacastEPKc@Base 6.4.0
 _ZN17QQuickColorDialog12resetOptionsEv@Base 6.4.0
 _ZN17QQuickColorDialog14optionsChangedEv@Base 6.4.0
 _ZN17QQuickColorDialog16setSelectedColorERK6QColor@Base 6.4.0
 _ZN17QQuickColorDialog16staticMetaObjectE@Base 6.4.0
 _ZN17QQuickColorDialog20selectedColorChangedEv@Base 6.4.0
 _ZN17QQuickColorDialog6onShowEP21QPlatformDialogHelper@Base 6.4.0
 _ZN17QQuickColorDialog8onCreateEP21QPlatformDialogHelper@Base 6.4.0
 _ZN17QQuickColorDialogC1EP7QObject@Base 6.4.0
 _ZN17QQuickColorDialogC2EP7QObject@Base 6.4.0
 _ZN18QQuickFolderDialog10setOptionsE6QFlagsIN18QFileDialogOptions16FileDialogOptionEE@Base 6.3.0
 _ZN18QQuickFolderDialog11qt_metacallEN11QMetaObject4CallEiPPv@Base 6.3.0
 _ZN18QQuickFolderDialog11qt_metacastEPKc@Base 6.3.0
 _ZN18QQuickFolderDialog12resetOptionsEv@Base 6.3.0
 _ZN18QQuickFolderDialog14optionsChangedEv@Base 6.3.0
 _ZN18QQuickFolderDialog14setAcceptLabelERK7QString@Base 6.3.0
 _ZN18QQuickFolderDialog14setRejectLabelERK7QString@Base 6.3.0
 _ZN18QQuickFolderDialog16resetAcceptLabelEv@Base 6.3.0
 _ZN18QQuickFolderDialog16resetRejectLabelEv@Base 6.3.0
 _ZN18QQuickFolderDialog16setCurrentFolderERK4QUrl@Base 6.3.0
 _ZN18QQuickFolderDialog16staticMetaObjectE@Base 6.3.0
 _ZN18QQuickFolderDialog17setSelectedFolderERK4QUrl@Base 6.3.0
 _ZN18QQuickFolderDialog18acceptLabelChangedEv@Base 6.3.0
 _ZN18QQuickFolderDialog18rejectLabelChangedEv@Base 6.3.0
 _ZN18QQuickFolderDialog20currentFolderChangedEv@Base 6.3.0
 _ZN18QQuickFolderDialog21selectedFolderChangedEv@Base 6.3.0
 _ZN18QQuickFolderDialog6onShowEP21QPlatformDialogHelper@Base 6.3.0
 _ZN18QQuickFolderDialog8onCreateEP21QPlatformDialogHelper@Base 6.3.0
 _ZN18QQuickFolderDialogC1EP7QObject@Base 6.3.0
 _ZN18QQuickFolderDialogC2EP7QObject@Base 6.3.0
 _ZN19QQuickMessageDialog10setButtonsE6QFlagsIN21QPlatformDialogHelper14StandardButtonEE@Base 6.3.0
 _ZN19QQuickMessageDialog11handleClickEN21QPlatformDialogHelper14StandardButtonENS0_10ButtonRoleE@Base 6.3.0
 _ZN19QQuickMessageDialog11qt_metacallEN11QMetaObject4CallEiPPv@Base 6.3.0
 _ZN19QQuickMessageDialog11qt_metacastEPKc@Base 6.3.0
 _ZN19QQuickMessageDialog11textChangedEv@Base 6.3.0
 _ZN19QQuickMessageDialog13buttonClickedEN21QPlatformDialogHelper14StandardButtonENS0_10ButtonRoleE@Base 6.3.0
 _ZN19QQuickMessageDialog14buttonsChangedEv@Base 6.3.0
 _ZN19QQuickMessageDialog15setDetailedTextERK7QString@Base 6.3.0
 _ZN19QQuickMessageDialog16staticMetaObjectE@Base 6.3.0
 _ZN19QQuickMessageDialog18setInformativeTextERK7QString@Base 6.3.0
 _ZN19QQuickMessageDialog19detailedTextChangedEv@Base 6.3.0
 _ZN19QQuickMessageDialog22informativeTextChangedEv@Base 6.3.0
 _ZN19QQuickMessageDialog6onShowEP21QPlatformDialogHelper@Base 6.3.0
 _ZN19QQuickMessageDialog7setTextERK7QString@Base 6.3.0
 _ZN19QQuickMessageDialog8onCreateEP21QPlatformDialogHelper@Base 6.3.0
 _ZN19QQuickMessageDialogC1EP7QObject@Base 6.3.0
 _ZN19QQuickMessageDialogC2EP7QObject@Base 6.3.0
 _ZN20QQuickAbstractDialog10classBeginEv@Base 6.2.0
 _ZN20QQuickAbstractDialog10setVisibleEb@Base 6.2.0
 _ZN20QQuickAbstractDialog11qt_metacallEN11QMetaObject4CallEiPPv@Base 6.2.0
 _ZN20QQuickAbstractDialog11qt_metacastEPKc@Base 6.2.0
 _ZN20QQuickAbstractDialog11setModalityEN2Qt14WindowModalityE@Base 6.2.0
 _ZN20QQuickAbstractDialog12flagsChangedEv@Base 6.2.0
 _ZN20QQuickAbstractDialog12titleChangedEv@Base 6.2.0
 _ZN20QQuickAbstractDialog13resultChangedEv@Base 6.2.0
 _ZN20QQuickAbstractDialog14visibleChangedEv@Base 6.2.0
 _ZN20QQuickAbstractDialog15modalityChangedEv@Base 6.2.0
 _ZN20QQuickAbstractDialog15setParentWindowEP7QWindow@Base 6.2.0
 _ZN20QQuickAbstractDialog16staticMetaObjectE@Base 6.2.0
 _ZN20QQuickAbstractDialog17componentCompleteEv@Base 6.2.0
 _ZN20QQuickAbstractDialog19parentWindowChangedEv@Base 6.2.0
 _ZN20QQuickAbstractDialog4dataEv@Base 6.2.0
 _ZN20QQuickAbstractDialog4doneENS_12StandardCodeE@Base 6.2.0
 _ZN20QQuickAbstractDialog4openEv@Base 6.2.0
 _ZN20QQuickAbstractDialog5closeEv@Base 6.2.0
 _ZN20QQuickAbstractDialog6acceptEv@Base 6.2.0
 _ZN20QQuickAbstractDialog6createEv@Base 6.2.0
 _ZN20QQuickAbstractDialog6onHideEP21QPlatformDialogHelper@Base 6.2.0
 _ZN20QQuickAbstractDialog6onShowEP21QPlatformDialogHelper@Base 6.2.0
 _ZN20QQuickAbstractDialog6rejectEv@Base 6.2.0
 _ZN20QQuickAbstractDialog7destroyEv@Base 6.2.0
 _ZN20QQuickAbstractDialog8acceptedEv@Base 6.2.0
 _ZN20QQuickAbstractDialog8onCreateEP21QPlatformDialogHelper@Base 6.2.0
 _ZN20QQuickAbstractDialog8rejectedEv@Base 6.2.0
 _ZN20QQuickAbstractDialog8setFlagsE6QFlagsIN2Qt10WindowTypeEE@Base 6.2.0
 _ZN20QQuickAbstractDialog8setTitleERK7QString@Base 6.2.0
 _ZN20QQuickAbstractDialog9setResultENS_12StandardCodeE@Base 6.2.0
 _ZN20QQuickAbstractDialogC1E16QQuickDialogTypeP7QObject@Base 6.3.0
 _ZN20QQuickAbstractDialogC2E16QQuickDialogTypeP7QObject@Base 6.3.0
 _ZN20QQuickAbstractDialogD0Ev@Base 6.2.0
 _ZN20QQuickAbstractDialogD1Ev@Base 6.2.0
 _ZN20QQuickAbstractDialogD2Ev@Base 6.2.0
 _ZNK16QQuickFileDialog10metaObjectEv@Base 6.2.0
 _ZNK16QQuickFileDialog11acceptLabelEv@Base 6.2.0
 _ZNK16QQuickFileDialog11currentFileEv@Base 6.2.0
 _ZNK16QQuickFileDialog11nameFiltersEv@Base 6.2.0
 _ZNK16QQuickFileDialog11rejectLabelEv@Base 6.2.0
 _ZNK16QQuickFileDialog12currentFilesEv@Base 6.2.0
 _ZNK16QQuickFileDialog12selectedFileEv@Base 6.2.0
 _ZNK16QQuickFileDialog13currentFolderEv@Base 6.2.0
 _ZNK16QQuickFileDialog13defaultSuffixEv@Base 6.2.0
 _ZNK16QQuickFileDialog13selectedFilesEv@Base 6.2.0
 _ZNK16QQuickFileDialog15useNativeDialogEv@Base 6.2.0
 _ZNK16QQuickFileDialog16addDefaultSuffixERK4QUrl@Base 6.2.0
 _ZNK16QQuickFileDialog18addDefaultSuffixesERK5QListI4QUrlE@Base 6.2.0
 _ZNK16QQuickFileDialog18selectedNameFilterEv@Base 6.2.0
 _ZNK16QQuickFileDialog7optionsEv@Base 6.2.0
 _ZNK16QQuickFileDialog8fileModeEv@Base 6.2.0
 _ZNK16QQuickFontDialog10metaObjectEv@Base 6.2.0
 _ZNK16QQuickFontDialog11currentFontEv@Base 6.2.0
 _ZNK16QQuickFontDialog12selectedFontEv@Base 6.2.0
 _ZNK16QQuickFontDialog15useNativeDialogEv@Base 6.2.0
 _ZNK16QQuickFontDialog7optionsEv@Base 6.2.0
 _ZNK17QQuickColorDialog10metaObjectEv@Base 6.4.0
 _ZNK17QQuickColorDialog13selectedColorEv@Base 6.4.0
 _ZNK17QQuickColorDialog15useNativeDialogEv@Base 6.4.0
 _ZNK17QQuickColorDialog7optionsEv@Base 6.4.0
 _ZNK18QQuickFolderDialog10metaObjectEv@Base 6.3.0
 _ZNK18QQuickFolderDialog11acceptLabelEv@Base 6.3.0
 _ZNK18QQuickFolderDialog11rejectLabelEv@Base 6.3.0
 _ZNK18QQuickFolderDialog13currentFolderEv@Base 6.3.0
 _ZNK18QQuickFolderDialog14selectedFolderEv@Base 6.3.0
 _ZNK18QQuickFolderDialog15useNativeDialogEv@Base 6.3.0
 _ZNK18QQuickFolderDialog7optionsEv@Base 6.3.0
 _ZNK19QQuickMessageDialog10metaObjectEv@Base 6.3.0
 _ZNK19QQuickMessageDialog12detailedTextEv@Base 6.3.0
 _ZNK19QQuickMessageDialog15informativeTextEv@Base 6.3.0
 _ZNK19QQuickMessageDialog4textEv@Base 6.3.0
 _ZNK19QQuickMessageDialog7buttonsEv@Base 6.3.0
 _ZNK20QQuickAbstractDialog10metaObjectEv@Base 6.2.0
 _ZNK20QQuickAbstractDialog12parentWindowEv@Base 6.2.0
 _ZNK20QQuickAbstractDialog15useNativeDialogEv@Base 6.2.0
 _ZNK20QQuickAbstractDialog16findParentWindowEv@Base 6.2.0
 _ZNK20QQuickAbstractDialog5flagsEv@Base 6.2.0
 _ZNK20QQuickAbstractDialog5titleEv@Base 6.2.0
 _ZNK20QQuickAbstractDialog6handleEv@Base 6.2.0
 _ZNK20QQuickAbstractDialog6resultEv@Base 6.2.0
 _ZNK20QQuickAbstractDialog8modalityEv@Base 6.2.0
 _ZNK20QQuickAbstractDialog9isVisibleEv@Base 6.2.0
 _ZTI16QQuickFileDialog@Base 6.2.0
 _ZTI16QQuickFontDialog@Base 6.2.0
 _ZTI17QQuickColorDialog@Base 6.4.0
 _ZTI18QQuickFolderDialog@Base 6.3.0
 _ZTI19QQuickMessageDialog@Base 6.3.0
 _ZTI20QQuickAbstractDialog@Base 6.2.0
 _ZTIZN9QMetaType17registerConverterI5QListI4QUrlE9QIterableI13QMetaSequenceEN9QtPrivate33QSequentialIterableConvertFunctorIS3_EEEEbT1_EUlPKvPvE_@Base 6.2.0
 _ZTIZN9QMetaType19registerMutableViewI5QListI4QUrlE9QIterableI13QMetaSequenceEN9QtPrivate37QSequentialIterableMutableViewFunctorIS3_EEEEbT1_EUlPvSB_E_@Base 6.2.0
 _ZTS16QQuickFileDialog@Base 6.2.0
 _ZTS16QQuickFontDialog@Base 6.2.0
 _ZTS17QQuickColorDialog@Base 6.4.0
 _ZTS18QQuickFolderDialog@Base 6.3.0
 _ZTS19QQuickMessageDialog@Base 6.3.0
 _ZTS20QQuickAbstractDialog@Base 6.2.0
 _ZTSZN9QMetaType17registerConverterI5QListI4QUrlE9QIterableI13QMetaSequenceEN9QtPrivate33QSequentialIterableConvertFunctorIS3_EEEEbT1_EUlPKvPvE_@Base 6.2.0
 _ZTSZN9QMetaType19registerMutableViewI5QListI4QUrlE9QIterableI13QMetaSequenceEN9QtPrivate37QSequentialIterableMutableViewFunctorIS3_EEEEbT1_EUlPvSB_E_@Base 6.2.0
 _ZTV16QQuickFileDialog@Base 6.2.0
 _ZTV16QQuickFontDialog@Base 6.2.0
 _ZTV17QQuickColorDialog@Base 6.4.0
 _ZTV18QQuickFolderDialog@Base 6.3.0
 _ZTV19QQuickMessageDialog@Base 6.3.0
 _ZTV20QQuickAbstractDialog@Base 6.2.0
 (optional=templinst)_ZZN9QMetaType21registerConverterImplI5QListI4QUrlE9QIterableI13QMetaSequenceEEEbSt8functionIFbPKvPvEES_S_E10unregister@Base 6.2.0
 (optional=templinst)_ZZN9QMetaType23registerMutableViewImplI5QListI4QUrlE9QIterableI13QMetaSequenceEEEbSt8functionIFbPvS8_EES_S_E10unregister@Base 6.2.0
 (c++)"non-virtual thunk to QQuickAbstractDialog::classBegin()@Base" 6.2.0
 (c++)"non-virtual thunk to QQuickAbstractDialog::componentComplete()@Base" 6.2.0
 (c++)"non-virtual thunk to QQuickAbstractDialog::~QQuickAbstractDialog()@Base" 6.2.0
