# SymbolsHelper-Confirmed: 6.4.1 amd64 hurd-i386 mips64el mipsel riscv64
libQt6QmlCompiler.so.6 libqt6qmlcompiler6 #MINVER#
| libqt6qmlcompiler6 #MINVER#, qt6-declarative-abi (= 6.4.2)
* Build-Depends-Packages: qt6-declarative-dev, qt6-declarative-private-dev
 _Z13lcAotCompilerv@Base 6.4.0
 _Z14qCompileJSFileRK7QStringS1_St8functionIFbRKN3QV412CompiledData19SaveableUnitPointerERK4QMapIi17QQmlJSAotFunctionEPS_EEP18QQmlJSCompileError@Base 6.4.0
 _Z15qCompileQmlFileRK7QStringSt8functionIFbRKN3QV412CompiledData19SaveableUnitPointerERK4QMapIi17QQmlJSAotFunctionEPS_EEP17QQmlJSAotCompilerP18QQmlJSCompileErrorbPNS3_8Compiler23CodegenWarningInterfaceEPS0_@Base 6.4.0
 _Z15qCompileQmlFileRN5QmlIR8DocumentERK7QStringSt8functionIFbRKN3QV412CompiledData19SaveableUnitPointerERK4QMapIi17QQmlJSAotFunctionEPS2_EEP17QQmlJSAotCompilerP18QQmlJSCompileErrorbPNS6_8Compiler23CodegenWarningInterfaceEPS3_@Base 6.4.0
 _Z19qSaveQmlJSUnitAsCppRK7QStringS1_RKN3QV412CompiledData19SaveableUnitPointerERK4QMapIi17QQmlJSAotFunctionEPS_@Base 6.4.0
 _Z20qQmlJSGenerateLoaderRK5QListI7QStringERKS0_S3_PS0_@Base 6.4.0
 _Z21qRelocateResourceFileRK7QStringS1_@Base 6.4.0
 _Z28qQmlJSSymbolNamespaceForPathRK7QString@Base 6.4.0
 _ZN11QQmlJSScope10prettyNameE14QAnyStringView@Base 6.4.0
 _ZN11QQmlJSScope11resolveTypeERK22QDeferredSharedPointerIS_ERK5QHashI7QStringNS_13ImportedScopeIS0_IKS_EEEEP4QSetIS5_E@Base 6.4.0
 _ZN11QQmlJSScope12resolveEnumsERK22QDeferredSharedPointerIS_ERKS0_IKS_E@Base 6.4.0
 _ZN11QQmlJSScope12resolveTypesERK22QDeferredSharedPointerIS_ERK5QHashI7QStringNS_13ImportedScopeIS0_IKS_EEEEP4QSetIS5_E@Base 6.4.0
 _ZN11QQmlJSScope15ownerOfPropertyERK22QDeferredSharedPointerIKS_ERK7QString@Base 6.4.0
 _ZN11QQmlJSScope15setBaseTypeNameERK7QString@Base 6.4.0
 _ZN11QQmlJSScope16setBaseTypeErrorERK7QString@Base 6.4.0
 _ZN11QQmlJSScope16updateChildScopeERK22QDeferredSharedPointerIS_ES3_RK5QHashI7QStringNS_13ImportedScopeIS0_IKS_EEEEP4QSetIS5_E@Base 6.4.0
 _ZN11QQmlJSScope17qualifiedNameFromERK7QStringS2_RK13QTypeRevisionS5_@Base 6.4.0
 _ZN11QQmlJSScope18insertJSIdentifierERK7QStringRKNS_20JavaScriptIdentifierE@Base 6.4.0
 _ZN11QQmlJSScope19findCurrentQMLScopeERK22QDeferredSharedPointerIKS_E@Base 6.4.0
 _ZN11QQmlJSScope19resolveNonEnumTypesERK22QDeferredSharedPointerIS_ERK5QHashI7QStringNS_13ImportedScopeIS0_IKS_EEEEP4QSetIS5_E@Base 6.4.0
 _ZN11QQmlJSScope23resolveGeneralizedGroupERK22QDeferredSharedPointerIS_ERKS0_IKS_ERK5QHashI7QStringNS_13ImportedScopeIS5_EEEP4QSetIS9_E@Base 6.4.0
 _ZN11QQmlJSScope24insertPropertyIdentifierERK18QQmlJSMetaProperty@Base 6.4.0
 _ZN11QQmlJSScope26setPropertyLocallyRequiredERK7QStringb@Base 6.4.0
 _ZN11QQmlJSScope31causesImplicitComponentWrappingERK18QQmlJSMetaPropertyRK22QDeferredSharedPointerIKS_E@Base 6.4.0
 _ZN11QQmlJSScope33addOwnPropertyBindingInQmlIROrderERK25QQmlJSMetaPropertyBindingNS_22BindingTargetSpecifierE@Base 6.4.0
 _ZN11QQmlJSScope5cloneERK22QDeferredSharedPointerIKS_E@Base 6.4.0
 _ZN11QQmlJSScope6ExportC1E7QStringS1_13QTypeRevisionS2_@Base 6.4.0
 _ZN11QQmlJSScope6ExportC2E7QStringS1_13QTypeRevisionS2_@Base 6.4.0
 _ZN11QQmlJSScope6ImportC1E7QStringS1_13QTypeRevisionbb@Base 6.4.0
 _ZN11QQmlJSScope6ImportC2E7QStringS1_13QTypeRevisionbb@Base 6.4.0
 _ZN11QQmlJSScope8findTypeERK7QStringRK5QHashIS0_NS_13ImportedScopeI22QDeferredSharedPointerIKS_EEEEP4QSetIS0_E@Base 6.4.0
 _ZN11QQmlJSScope8reparentERK22QDeferredSharedPointerIS_ES3_@Base 6.4.0
 _ZN11QQmlJSUtils10didYouMeanERK7QString5QListIS0_EN6QQmlJS14SourceLocationE@Base 6.4.0
 _ZN11QQmlJSUtils12resolveAliasEPK18QQmlJSTypeResolverRK18QQmlJSMetaPropertyRK22QDeferredSharedPointerIK11QQmlJSScopeERKNS_22AliasResolutionVisitorE@Base 6.4.0
 _ZN11QQmlJSUtils12resolveAliasERK16QQmlJSScopesByIdRK18QQmlJSMetaPropertyRK22QDeferredSharedPointerIK11QQmlJSScopeERKNS_22AliasResolutionVisitorE@Base 6.4.0
 _ZN12QColorOutput13insertMappingEi6QFlagsINS_18ColorCodeComponentEE@Base 6.4.0
 _ZN12QColorOutput14writeUncoloredERK7QString@Base 6.4.0
 _ZN12QColorOutput20writePrefixedMessageERK7QString9QtMsgTypeS2_@Base 6.4.0
 _ZN12QColorOutput5writeE11QStringViewi@Base 6.4.0
 _ZN12QColorOutput9setSilentEb@Base 6.4.0
 _ZN12QColorOutputC1Ev@Base 6.4.0
 _ZN12QColorOutputC2Ev@Base 6.4.0
 _ZN12QColorOutputD1Ev@Base 6.4.0
 _ZN12QColorOutputD2Ev@Base 6.4.0
 _ZN12QQmlJSLinter10applyFixesEP7QStringb@Base 6.4.0
 _ZN12QQmlJSLinter11loadPluginsE5QListI7QStringE@Base 6.4.0
 _ZN12QQmlJSLinter13parseCommentsEP12QQmlJSLoggerRK5QListIN6QQmlJS14SourceLocationEE@Base 6.4.0
 _ZN12QQmlJSLinter17defaultPluginPathEv@Base 6.4.0
 _ZN12QQmlJSLinter6Plugin13parseMetaDataERK11QJsonObject7QString@Base 6.4.0
 _ZN12QQmlJSLinter6PluginC1E7QString@Base 6.4.0
 _ZN12QQmlJSLinter6PluginC1EOS0_@Base 6.4.0
 _ZN12QQmlJSLinter6PluginC1ERK13QStaticPlugin@Base 6.4.0
 _ZN12QQmlJSLinter6PluginC2E7QString@Base 6.4.0
 _ZN12QQmlJSLinter6PluginC2EOS0_@Base 6.4.0
 _ZN12QQmlJSLinter6PluginC2ERK13QStaticPlugin@Base 6.4.0
 _ZN12QQmlJSLinter6PluginD1Ev@Base 6.4.0
 _ZN12QQmlJSLinter6PluginD2Ev@Base 6.4.0
 _ZN12QQmlJSLinter8lintFileERK7QStringPS1_bP10QJsonArrayRK5QListIS0_ES9_S9_RK4QMapIS0_N12QQmlJSLogger6OptionEE@Base 6.4.0
 _ZN12QQmlJSLinterC1ERK5QListI7QStringES4_b@Base 6.4.0
 _ZN12QQmlJSLinterC2ERK5QListI7QStringES4_b@Base 6.4.0
 _ZN12QQmlJSLogger12printContextERK7QStringRKN6QQmlJS14SourceLocationE@Base 6.4.0
 _ZN12QQmlJSLogger15processMessagesERK5QListIN6QQmlJS17DiagnosticMessageEE20QQmlJSLoggerCategory@Base 6.4.0
 _ZN12QQmlJSLogger3logERK7QString20QQmlJSLoggerCategoryRKN6QQmlJS14SourceLocationE9QtMsgTypebbRKSt8optionalI13FixSuggestionES0_@Base 6.4.0
 _ZN12QQmlJSLogger7optionsEv@Base 6.4.0
 _ZN12QQmlJSLogger8printFixERK13FixSuggestion@Base 6.4.0
 _ZN12QQmlJSLoggerC1Ev@Base 6.4.0
 _ZN12QQmlJSLoggerC2Ev@Base 6.4.0
 _ZN14QQmlJSImporter10importFileERK7QString@Base 6.4.0
 _ZN14QQmlJSImporter10readQmldirERK7QString@Base 6.4.0
 _ZN14QQmlJSImporter12importHelperERK7QStringPNS_14AvailableTypesES2_13QTypeRevisionbb@Base 6.4.0
 _ZN14QQmlJSImporter12importModuleERK7QStringS2_13QTypeRevisionP5QListIS0_E@Base 6.4.0
 _ZN14QQmlJSImporter12readQmltypesERK7QStringP5QHashIS0_N11QQmlJSScope13ExportedScopeI22QDeferredSharedPointerIS4_EEEEP5QListIN13QQmlDirParser6ImportEE@Base 6.4.0
 _ZN14QQmlJSImporter13importQmldirsERK5QListI7QStringE@Base 6.4.0
 _ZN14QQmlJSImporter13processImportERKN11QQmlJSScope6ImportERKNS_6ImportEPNS_14AvailableTypesE@Base 6.4.0
 _ZN14QQmlJSImporter13readDirectoryERK7QString@Base 6.4.0
 _ZN14QQmlJSImporter14importBuiltinsEv@Base 6.4.0
 _ZN14QQmlJSImporter14setImportPathsERK5QListI7QStringE@Base 6.4.0
 _ZN14QQmlJSImporter15importDirectoryERK7QStringS2_@Base 6.4.0
 _ZN14QQmlJSImporter17makeImportVisitorERK22QDeferredSharedPointerI11QQmlJSScopeEPS_P12QQmlJSLoggerRK7QStringRK5QListIS8_E@Base 6.4.0
 _ZN14QQmlJSImporter18importDependenciesERKNS_6ImportEPNS_14AvailableTypesERK7QString13QTypeRevisionb@Base 6.4.0
 _ZN14QQmlJSImporter19builtinImportHelperEv@Base 6.4.0
 _ZN14QQmlJSImporter19localFile2ScopeTreeERK7QString@Base 6.4.0
 _ZN14QQmlJSImporter19setQualifiedNamesOnERKNS_6ImportE@Base 6.4.0
 _ZN14QQmlJSImporter20builtinInternalNamesEv@Base 6.4.0
 _ZN14QQmlJSImporterC1ERK5QListI7QStringEP24QQmlJSResourceFileMapperb@Base 6.4.0
 _ZN14QQmlJSImporterC2ERK5QListI7QStringEP24QQmlJSResourceFileMapperb@Base 6.4.0
 _ZN17QQmlJSAotCompiler11setDocumentEPKN5QmlIR9JSCodeGenEPKNS0_8DocumentE@Base 6.4.0
 _ZN17QQmlJSAotCompiler14compileBindingEPKN3QV48Compiler7ContextERKN5QmlIR7BindingE@Base 6.4.0
 _ZN17QQmlJSAotCompiler15compileFunctionEPKN3QV48Compiler7ContextERKN5QmlIR8FunctionE@Base 6.4.0
 _ZN17QQmlJSAotCompiler8setScopeEPKN5QmlIR6ObjectES3_@Base 6.4.0
 _ZN17QQmlJSAotCompiler9doCompileEPKN3QV48Compiler7ContextEPN17QQmlJSCompilePass8FunctionEPN6QQmlJS17DiagnosticMessageE@Base 6.4.0
 _ZN17QQmlJSAotCompilerC1EP14QQmlJSImporterRK7QStringRK5QListIS2_EP12QQmlJSLogger@Base 6.4.0
 _ZN17QQmlJSAotCompilerC2EP14QQmlJSImporterRK7QStringRK5QListIS2_EP12QQmlJSLogger@Base 6.4.0
 _ZN17QQmlJSBasicBlocks11adjustTypesEv@Base 6.4.0
 _ZN17QQmlJSBasicBlocks11processJumpEiNS_8JumpModeE@Base 6.4.0
 _ZN17QQmlJSBasicBlocks12generate_RetEv@Base 6.4.0
 _ZN17QQmlJSBasicBlocks13generate_JumpEi@Base 6.4.0
 _ZN17QQmlJSBasicBlocks14endInstructionEN3QV44Moth5Instr4TypeE@Base 6.4.0
 _ZN17QQmlJSBasicBlocks16startInstructionEN3QV44Moth5Instr4TypeE@Base 6.4.0
 _ZN17QQmlJSBasicBlocks17generate_JumpTrueEi@Base 6.4.0
 _ZN17QQmlJSBasicBlocks18generate_JumpFalseEi@Base 6.4.0
 _ZN17QQmlJSBasicBlocks19populateBasicBlocksEv@Base 6.4.0
 _ZN17QQmlJSBasicBlocks20generate_DefineArrayEii@Base 6.4.0
 _ZN17QQmlJSBasicBlocks23generate_ThrowExceptionEv@Base 6.4.0
 _ZN17QQmlJSBasicBlocks23populateReaderLocationsEv@Base 6.4.0
 _ZN17QQmlJSBasicBlocks24generate_JumpNoExceptionEi@Base 6.4.0
 _ZN17QQmlJSBasicBlocks25generate_JumpNotUndefinedEi@Base 6.4.0
 _ZN17QQmlJSBasicBlocks3runEPKN17QQmlJSCompilePass8FunctionERK8QFlatMapIiNS0_21InstructionAnnotationESt4lessIiE5QListIiES8_IS5_EE@Base 6.4.0
 _ZN17QQmlJSShadowCheck14checkShadowingERK21QQmlJSRegisterContentRK7QString@Base 6.4.0
 _ZN17QQmlJSShadowCheck14endInstructionEN3QV44Moth5Instr4TypeE@Base 6.4.0
 _ZN17QQmlJSShadowCheck16startInstructionEN3QV44Moth5Instr4TypeE@Base 6.4.0
 _ZN17QQmlJSShadowCheck18generate_GetLookupEi@Base 6.4.0
 _ZN17QQmlJSShadowCheck18generate_SetLookupEii@Base 6.4.0
 _ZN17QQmlJSShadowCheck21generate_LoadPropertyEi@Base 6.4.0
 _ZN17QQmlJSShadowCheck22generate_StorePropertyEii@Base 6.4.0
 _ZN17QQmlJSShadowCheck3runEPK8QFlatMapIiN17QQmlJSCompilePass21InstructionAnnotationESt4lessIiE5QListIiES5_IS2_EEPKNS1_8FunctionEPN6QQmlJS17DiagnosticMessageE@Base 6.4.0
 _ZN18QQmlJSCompileError16appendDiagnosticERK7QStringRKN6QQmlJS17DiagnosticMessageE@Base 6.4.0
 _ZN18QQmlJSCompileError17appendDiagnosticsERK7QStringRK5QListIN6QQmlJS17DiagnosticMessageEE@Base 6.4.0
 _ZN18QQmlJSCompileError5printEv@Base 6.4.0
 _ZN18QQmlJSTypeResolver4initEP19QQmlJSImportVisitorPN6QQmlJS3AST4NodeE@Base 6.4.0
 _ZN18QQmlJSTypeResolverC1EP14QQmlJSImporter@Base 6.4.0
 _ZN18QQmlJSTypeResolverC2EP14QQmlJSImporter@Base 6.4.0
 _ZN19QQmlJSCodeGenerator10conversionERK22QDeferredSharedPointerIK11QQmlJSScopeES5_RK7QString@Base 6.4.0
 _ZN19QQmlJSCodeGenerator10metaObjectERK22QDeferredSharedPointerIK11QQmlJSScopeE@Base 6.4.0
 _ZN19QQmlJSCodeGenerator11contentTypeERK21QQmlJSRegisterContentRK7QString@Base 6.4.0
 _ZN19QQmlJSCodeGenerator11generate_AsEi@Base 6.4.0
 _ZN19QQmlJSCodeGenerator12generate_AddEi@Base 6.4.0
 _ZN19QQmlJSCodeGenerator12generate_DivEi@Base 6.4.0
 _ZN19QQmlJSCodeGenerator12generate_ExpEi@Base 6.4.0
 _ZN19QQmlJSCodeGenerator12generate_ModEi@Base 6.4.0
 _ZN19QQmlJSCodeGenerator12generate_MulEi@Base 6.4.0
 _ZN19QQmlJSCodeGenerator12generate_RetEv@Base 6.4.0
 _ZN19QQmlJSCodeGenerator12generate_ShlEi@Base 6.4.0
 _ZN19QQmlJSCodeGenerator12generate_ShrEi@Base 6.4.0
 _ZN19QQmlJSCodeGenerator12generate_SubEi@Base 6.4.0
 _ZN19QQmlJSCodeGenerator13argumentsListEiiP7QString@Base 6.4.0
 _ZN19QQmlJSCodeGenerator13generate_JumpEi@Base 6.4.0
 _ZN19QQmlJSCodeGenerator13generate_UNotEv@Base 6.4.0
 _ZN19QQmlJSCodeGenerator13generate_UShrEi@Base 6.4.0
 _ZN19QQmlJSCodeGenerator14contentPointerERK21QQmlJSRegisterContentRK7QString@Base 6.4.0
 _ZN19QQmlJSCodeGenerator14endInstructionEN3QV44Moth5Instr4TypeE@Base 6.4.0
 _ZN19QQmlJSCodeGenerator14generateLookupERK7QStringS2_S2_@Base 6.4.0
 _ZN19QQmlJSCodeGenerator14generate_BitOrEi@Base 6.4.0
 _ZN19QQmlJSCodeGenerator14generate_CmpEqEi@Base 6.4.0
 _ZN19QQmlJSCodeGenerator14generate_CmpGeEi@Base 6.4.0
 _ZN19QQmlJSCodeGenerator14generate_CmpGtEi@Base 6.4.0
 _ZN19QQmlJSCodeGenerator14generate_CmpInEi@Base 6.4.0
 _ZN19QQmlJSCodeGenerator14generate_CmpLeEi@Base 6.4.0
 _ZN19QQmlJSCodeGenerator14generate_CmpLtEi@Base 6.4.0
 _ZN19QQmlJSCodeGenerator14generate_CmpNeEi@Base 6.4.0
 _ZN19QQmlJSCodeGenerator14generate_DebugEv@Base 6.4.0
 _ZN19QQmlJSCodeGenerator14generate_UPlusEv@Base 6.4.0
 _ZN19QQmlJSCodeGenerator14generate_YieldEv@Base 6.4.0
 _ZN19QQmlJSCodeGenerator15eqIntExpressionEi@Base 6.4.0
 _ZN19QQmlJSCodeGenerator15generate_BitAndEi@Base 6.4.0
 _ZN19QQmlJSCodeGenerator15generate_BitXorEi@Base 6.4.0
 _ZN19QQmlJSCodeGenerator15generate_ResumeEi@Base 6.4.0
 _ZN19QQmlJSCodeGenerator15generate_UComplEv@Base 6.4.0
 _ZN19QQmlJSCodeGenerator15generate_UMinusEv@Base 6.4.0
 _ZN19QQmlJSCodeGenerator16errorReturnValueEv@Base 6.4.0
 _ZN19QQmlJSCodeGenerator16generate_LoadIntEi@Base 6.4.0
 _ZN19QQmlJSCodeGenerator16generate_LoadRegEi@Base 6.4.0
 _ZN19QQmlJSCodeGenerator16generate_MoveRegEii@Base 6.4.0
 _ZN19QQmlJSCodeGenerator16inlineMathMethodERK7QStringii@Base 6.4.0
 _ZN19QQmlJSCodeGenerator16startInstructionEN3QV44Moth5Instr4TypeE@Base 6.4.0
 _ZN19QQmlJSCodeGenerator17generate_CallNameEiii@Base 6.4.0
 _ZN19QQmlJSCodeGenerator17generate_CmpEqIntEi@Base 6.4.0
 _ZN19QQmlJSCodeGenerator17generate_CmpNeIntEi@Base 6.4.0
 _ZN19QQmlJSCodeGenerator17generate_JumpTrueEi@Base 6.4.0
 _ZN19QQmlJSCodeGenerator17generate_LoadNameEi@Base 6.4.0
 _ZN19QQmlJSCodeGenerator17generate_LoadNullEv@Base 6.4.0
 _ZN19QQmlJSCodeGenerator17generate_LoadTrueEv@Base 6.4.0
 _ZN19QQmlJSCodeGenerator17generate_LoadZeroEv@Base 6.4.0
 _ZN19QQmlJSCodeGenerator17generate_ShlConstEi@Base 6.4.0
 _ZN19QQmlJSCodeGenerator17generate_ShrConstEi@Base 6.4.0
 _ZN19QQmlJSCodeGenerator17generate_StoreRegEi@Base 6.4.0
 _ZN19QQmlJSCodeGenerator17generate_TailCallEiiii@Base 6.4.0
 _ZN19QQmlJSCodeGenerator17generate_ToObjectEv@Base 6.4.0
 _ZN19QQmlJSCodeGenerator18generateEnumLookupEi@Base 6.4.0
 _ZN19QQmlJSCodeGenerator18generateMoveOutVarERK7QString@Base 6.4.0
 _ZN19QQmlJSCodeGenerator18generateTypeLookupEi@Base 6.4.0
 _ZN19QQmlJSCodeGenerator18generate_CallValueEiii@Base 6.4.0
 _ZN19QQmlJSCodeGenerator18generate_CmpEqNullEv@Base 6.4.0
 _ZN19QQmlJSCodeGenerator18generate_CmpNeNullEv@Base 6.4.0
 _ZN19QQmlJSCodeGenerator18generate_ConstructEiii@Base 6.4.0
 _ZN19QQmlJSCodeGenerator18generate_DecrementEv@Base 6.4.0
 _ZN19QQmlJSCodeGenerator18generate_GetLookupEi@Base 6.4.0
 _ZN19QQmlJSCodeGenerator18generate_IncrementEv@Base 6.4.0
 _ZN19QQmlJSCodeGenerator18generate_JumpFalseEi@Base 6.4.0
 _ZN19QQmlJSCodeGenerator18generate_LoadConstEi@Base 6.4.0
 _ZN19QQmlJSCodeGenerator18generate_LoadFalseEv@Base 6.4.0
 _ZN19QQmlJSCodeGenerator18generate_LoadLocalEi@Base 6.4.0
 _ZN19QQmlJSCodeGenerator18generate_MoveConstEii@Base 6.4.0
 _ZN19QQmlJSCodeGenerator18generate_SetLookupEii@Base 6.4.0
 _ZN19QQmlJSCodeGenerator18generate_UShrConstEi@Base 6.4.0
 _ZN19QQmlJSCodeGenerator18generate_YieldStarEv@Base 6.4.0
 _ZN19QQmlJSCodeGenerator19generate_BitOrConstEi@Base 6.4.0
 _ZN19QQmlJSCodeGenerator19generate_DeclareVarEii@Base 6.4.0
 _ZN19QQmlJSCodeGenerator19generate_DeleteNameEi@Base 6.4.0
 _ZN19QQmlJSCodeGenerator19generate_LoadImportEi@Base 6.4.0
 _ZN19QQmlJSCodeGenerator19generate_MoveRegExpEii@Base 6.4.0
 _ZN19QQmlJSCodeGenerator19generate_PopContextEv@Base 6.4.0
 _ZN19QQmlJSCodeGenerator19generate_StoreLocalEi@Base 6.4.0
 _ZN19QQmlJSCodeGenerator19generate_TypeofNameEi@Base 6.4.0
 _ZN19QQmlJSCodeGenerator20AccumulatorConverterC1EPS_@Base 6.4.0
 _ZN19QQmlJSCodeGenerator20AccumulatorConverterC2EPS_@Base 6.4.0
 _ZN19QQmlJSCodeGenerator20AccumulatorConverterD1Ev@Base 6.4.0
 _ZN19QQmlJSCodeGenerator20AccumulatorConverterD2Ev@Base 6.4.0
 _ZN19QQmlJSCodeGenerator20generate_BitAndConstEi@Base 6.4.0
 _ZN19QQmlJSCodeGenerator20generate_BitXorConstEi@Base 6.4.0
 _ZN19QQmlJSCodeGenerator20generate_CallElementEiiii@Base 6.4.0
 _ZN19QQmlJSCodeGenerator20generate_CreateClassEiii@Base 6.4.0
 _ZN19QQmlJSCodeGenerator20generate_DefineArrayEii@Base 6.4.0
 _ZN19QQmlJSCodeGenerator20generate_GetIteratorEi@Base 6.4.0
 _ZN19QQmlJSCodeGenerator20generate_LoadClosureEi@Base 6.4.0
 _ZN19QQmlJSCodeGenerator20generate_LoadElementEi@Base 6.4.0
 _ZN19QQmlJSCodeGenerator20generate_TypeofValueEv@Base 6.4.0
 _ZN19QQmlJSCodeGenerator20getLookupPreparationERK21QQmlJSRegisterContentRK7QStringi@Base 6.4.0
 _ZN19QQmlJSCodeGenerator20setLookupPreparationERK21QQmlJSRegisterContentRK7QStringi@Base 6.4.0
 _ZN19QQmlJSCodeGenerator21generate_CallPropertyEiiii@Base 6.4.0
 _ZN19QQmlJSCodeGenerator21generate_GetExceptionEv@Base 6.4.0
 _ZN19QQmlJSCodeGenerator21generate_IteratorNextEii@Base 6.4.0
 _ZN19QQmlJSCodeGenerator21generate_LoadPropertyEi@Base 6.4.0
 _ZN19QQmlJSCodeGenerator21generate_SetExceptionEv@Base 6.4.0
 _ZN19QQmlJSCodeGenerator21generate_StoreElementEii@Base 6.4.0
 _ZN19QQmlJSCodeGenerator21rejectIfNonQObjectOutERK7QString@Base 6.4.0
 _ZN19QQmlJSCodeGenerator22generateExceptionCheckEv@Base 6.4.0
 _ZN19QQmlJSCodeGenerator22generateUnaryOperationERK7QString@Base 6.4.0
 _ZN19QQmlJSCodeGenerator22generate_CmpInstanceOfEi@Base 6.4.0
 _ZN19QQmlJSCodeGenerator22generate_IteratorCloseEi@Base 6.4.0
 _ZN19QQmlJSCodeGenerator22generate_LoadUndefinedEv@Base 6.4.0
 _ZN19QQmlJSCodeGenerator22generate_StorePropertyEii@Base 6.4.0
 _ZN19QQmlJSCodeGenerator22generate_UnwindToLabelEii@Base 6.4.0
 _ZN19QQmlJSCodeGenerator23generate_CallWithSpreadEiiii@Base 6.4.0
 _ZN19QQmlJSCodeGenerator23generate_CheckExceptionEv@Base 6.4.0
 _ZN19QQmlJSCodeGenerator23generate_CmpStrictEqualEi@Base 6.4.0
 _ZN19QQmlJSCodeGenerator23generate_DeletePropertyEii@Base 6.4.0
 _ZN19QQmlJSCodeGenerator23generate_ThrowExceptionEv@Base 6.4.0
 _ZN19QQmlJSCodeGenerator23generate_UnwindDispatchEv@Base 6.4.0
 _ZN19QQmlJSCodeGenerator24generateCompareOperationEiRK7QString@Base 6.4.0
 _ZN19QQmlJSCodeGenerator24generateInPlaceOperationERK7QString@Base 6.4.0
 _ZN19QQmlJSCodeGenerator24generate_JumpNoExceptionEi@Base 6.4.0
 _ZN19QQmlJSCodeGenerator24generate_LoadScopedLocalEii@Base 6.4.0
 _ZN19QQmlJSCodeGenerator24generate_PushWithContextEv@Base 6.4.0
 _ZN19QQmlJSCodeGenerator24generate_StoreNameSloppyEi@Base 6.4.0
 _ZN19QQmlJSCodeGenerator24generate_StoreNameStrictEi@Base 6.4.0
 _ZN19QQmlJSCodeGenerator25generateEqualityOperationEiRK7QStringb@Base 6.4.0
 _ZN19QQmlJSCodeGenerator25generate_CallGlobalLookupEiii@Base 6.4.0
 _ZN19QQmlJSCodeGenerator25generate_CallWithReceiverEiiii@Base 6.4.0
 _ZN19QQmlJSCodeGenerator25generate_JumpNotUndefinedEi@Base 6.4.0
 _ZN19QQmlJSCodeGenerator25generate_LoadGlobalLookupEi@Base 6.4.0
 _ZN19QQmlJSCodeGenerator25generate_PopScriptContextEv@Base 6.4.0
 _ZN19QQmlJSCodeGenerator25generate_PushBlockContextEi@Base 6.4.0
 _ZN19QQmlJSCodeGenerator25generate_PushCatchContextEii@Base 6.4.0
 _ZN19QQmlJSCodeGenerator25generate_SetUnwindHandlerEi@Base 6.4.0
 _ZN19QQmlJSCodeGenerator25generate_StoreScopedLocalEii@Base 6.4.0
 _ZN19QQmlJSCodeGenerator26generate_CloneBlockContextEv@Base 6.4.0
 _ZN19QQmlJSCodeGenerator26generate_CmpStrictNotEqualEi@Base 6.4.0
 _ZN19QQmlJSCodeGenerator26generate_CreateCallContextEv@Base 6.4.0
 _ZN19QQmlJSCodeGenerator26generate_GetOptionalLookupEii@Base 6.4.0
 _ZN19QQmlJSCodeGenerator26generate_GetTemplateObjectEi@Base 6.4.0
 _ZN19QQmlJSCodeGenerator26generate_LoadRuntimeStringEi@Base 6.4.0
 _ZN19QQmlJSCodeGenerator26generate_LoadSuperPropertyEi@Base 6.4.0
 _ZN19QQmlJSCodeGenerator26generate_PushScriptContextEi@Base 6.4.0
 _ZN19QQmlJSCodeGenerator27generateArithmeticOperationEiRK7QString@Base 6.4.0
 _ZN19QQmlJSCodeGenerator27generate_CallPropertyLookupEiiii@Base 6.4.0
 _ZN19QQmlJSCodeGenerator27generate_StoreSuperPropertyEi@Base 6.4.0
 _ZN19QQmlJSCodeGenerator28generate_ConstructWithSpreadEiii@Base 6.4.0
 _ZN19QQmlJSCodeGenerator28generate_ConvertThisToObjectEv@Base 6.4.0
 _ZN19QQmlJSCodeGenerator28generate_CreateRestParameterEi@Base 6.4.0
 _ZN19QQmlJSCodeGenerator28generate_DefineObjectLiteralEiii@Base 6.4.0
 _ZN19QQmlJSCodeGenerator29generateSetInstructionPointerEv@Base 6.4.0
 _ZN19QQmlJSCodeGenerator29generate_LoadOptionalPropertyEii@Base 6.4.0
 _ZN19QQmlJSCodeGenerator29generate_LoadSuperConstructorEv@Base 6.4.0
 _ZN19QQmlJSCodeGenerator30generate_DeadTemporalZoneCheckEi@Base 6.4.0
 _ZN19QQmlJSCodeGenerator31generateOutputVariantConversionERK22QDeferredSharedPointerIK11QQmlJSScopeE@Base 6.4.0
 _ZN19QQmlJSCodeGenerator31generate_CallPossiblyDirectEvalEii@Base 6.4.0
 _ZN19QQmlJSCodeGenerator31generate_DestructureRestElementEv@Base 6.4.0
 _ZN19QQmlJSCodeGenerator31generate_ThrowOnNullOrUndefinedEv@Base 6.4.0
 _ZN19QQmlJSCodeGenerator33generate_IteratorNextForYieldStarEii@Base 6.4.0
 _ZN19QQmlJSCodeGenerator35generateJumpCodeWithTypeConversionsEi@Base 6.4.0
 _ZN19QQmlJSCodeGenerator36generate_CreateMappedArgumentsObjectEv@Base 6.4.0
 _ZN19QQmlJSCodeGenerator37generate_CallQmlContextPropertyLookupEiii@Base 6.4.0
 _ZN19QQmlJSCodeGenerator37generate_LoadQmlContextPropertyLookupEi@Base 6.4.0
 _ZN19QQmlJSCodeGenerator38generate_CreateUnmappedArgumentsObjectEv@Base 6.4.0
 _ZN19QQmlJSCodeGenerator3runEPKN17QQmlJSCompilePass8FunctionEPK8QFlatMapIiNS0_21InstructionAnnotationESt4lessIiE5QListIiES8_IS5_EEPN6QQmlJS17DiagnosticMessageE@Base 6.4.0
 _ZN19QQmlJSCodeGenerator40generate_InitializeBlockDeadTemporalZoneEii@Base 6.4.0
 _ZN19QQmlJSCodeGenerator6rejectERK7QString@Base 6.4.0
 _ZN19QQmlJSCodeGeneratorC1EPKN3QV48Compiler7ContextEPKNS1_15JSUnitGeneratorEPK18QQmlJSTypeResolverP12QQmlJSLoggerRK5QListI7QStringE@Base 6.4.0
 _ZN19QQmlJSCodeGeneratorC2EPKN3QV48Compiler7ContextEPKNS1_15JSUnitGeneratorEPK18QQmlJSTypeResolverP12QQmlJSLoggerRK5QListI7QStringE@Base 6.4.0
 _ZN19QQmlJSImportVisitor12checkSignalsEv@Base 6.4.0
 _ZN19QQmlJSImportVisitor14enterRootScopeEN11QQmlJSScope9ScopeTypeERK7QStringRKN6QQmlJS14SourceLocationE@Base 6.4.0
 _ZN19QQmlJSImportVisitor14isTypeResolvedERK22QDeferredSharedPointerIK11QQmlJSScopeE@Base 6.4.0
 _ZN19QQmlJSImportVisitor14setAllBindingsEv@Base 6.4.0
 _ZN19QQmlJSImportVisitor16checkDeprecationERK22QDeferredSharedPointerIK11QQmlJSScopeE@Base 6.4.0
 _ZN19QQmlJSImportVisitor16enterEnvironmentEN11QQmlJSScope9ScopeTypeERK7QStringRKN6QQmlJS14SourceLocationE@Base 6.4.0
 _ZN19QQmlJSImportVisitor16leaveEnvironmentEv@Base 6.4.0
 _ZN19QQmlJSImportVisitor16parseAnnotationsEPN6QQmlJS3AST16UiAnnotationListE@Base 6.4.0
 _ZN19QQmlJSImportVisitor17importBaseModulesEv@Base 6.4.0
 _ZN19QQmlJSImportVisitor19handleIdDeclarationEPN6QQmlJS3AST15UiScriptBindingE@Base 6.4.0
 _ZN19QQmlJSImportVisitor20addDefaultPropertiesEv@Base 6.4.0
 _ZN19QQmlJSImportVisitor20populateCurrentScopeEN11QQmlJSScope9ScopeTypeERK7QStringRKN6QQmlJS14SourceLocationE@Base 6.4.0
 _ZN19QQmlJSImportVisitor20processPropertyTypesEv@Base 6.4.0
 _ZN19QQmlJSImportVisitor20resolveAliasesAndIdsEv@Base 6.4.0
 _ZN19QQmlJSImportVisitor21addImportWithLocationERK7QStringRKN6QQmlJS14SourceLocationE@Base 6.4.0
 _ZN19QQmlJSImportVisitor21processImportWarningsERK7QStringRKN6QQmlJS14SourceLocationE@Base 6.4.0
 _ZN19QQmlJSImportVisitor22breakInheritanceCyclesERK22QDeferredSharedPointerI11QQmlJSScopeE@Base 6.4.0
 _ZN19QQmlJSImportVisitor22parseBindingExpressionERK7QStringPKN6QQmlJS3AST9StatementE@Base 6.4.0
 _ZN19QQmlJSImportVisitor23addFunctionOrExpressionERK22QDeferredSharedPointerIK11QQmlJSScopeERK7QString@Base 6.4.0
 _ZN19QQmlJSImportVisitor23checkRequiredPropertiesEv@Base 6.4.0
 _ZN19QQmlJSImportVisitor23implicitImportDirectoryERK7QStringP24QQmlJSResourceFileMapper@Base 6.4.0
 _ZN19QQmlJSImportVisitor23processPropertyBindingsEv@Base 6.4.0
 _ZN19QQmlJSImportVisitor24forgetFunctionExpressionERK7QString@Base 6.4.0
 _ZN19QQmlJSImportVisitor24processDefaultPropertiesEv@Base 6.4.0
 _ZN19QQmlJSImportVisitor24throwRecursionDepthErrorEv@Base 6.4.0
 _ZN19QQmlJSImportVisitor25enterEnvironmentNonUniqueEN11QQmlJSScope9ScopeTypeERK7QStringRKN6QQmlJS14SourceLocationE@Base 6.4.0
 _ZN19QQmlJSImportVisitor28flushPendingSignalParametersEv@Base 6.4.0
 _ZN19QQmlJSImportVisitor29checkGroupedAndAttachedScopesE22QDeferredSharedPointerIK11QQmlJSScopeE@Base 6.4.0
 _ZN19QQmlJSImportVisitor29processPropertyBindingObjectsEv@Base 6.4.0
 _ZN19QQmlJSImportVisitor29visitFunctionExpressionHelperEPN6QQmlJS3AST18FunctionExpressionE@Base 6.4.0
 _ZN19QQmlJSImportVisitor5visitEPN6QQmlJS3AST10UiRequiredE@Base 6.4.0
 _ZN19QQmlJSImportVisitor5visitEPN6QQmlJS3AST12ForStatementE@Base 6.4.0
 _ZN19QQmlJSImportVisitor5visitEPN6QQmlJS3AST13StringLiteralE@Base 6.4.0
 _ZN19QQmlJSImportVisitor5visitEPN6QQmlJS3AST13WithStatementE@Base 6.4.0
 _ZN19QQmlJSImportVisitor5visitEPN6QQmlJS3AST14PatternElementE@Base 6.4.0
 _ZN19QQmlJSImportVisitor5visitEPN6QQmlJS3AST14UiArrayBindingE@Base 6.4.0
 _ZN19QQmlJSImportVisitor5visitEPN6QQmlJS3AST14UiPublicMemberE@Base 6.4.0
 _ZN19QQmlJSImportVisitor5visitEPN6QQmlJS3AST15ClassExpressionE@Base 6.4.0
 _ZN19QQmlJSImportVisitor5visitEPN6QQmlJS3AST15UiObjectBindingE@Base 6.4.0
 _ZN19QQmlJSImportVisitor5visitEPN6QQmlJS3AST15UiScriptBindingE@Base 6.4.0
 _ZN19QQmlJSImportVisitor5visitEPN6QQmlJS3AST15UiSourceElementE@Base 6.4.0
 _ZN19QQmlJSImportVisitor5visitEPN6QQmlJS3AST16ClassDeclarationE@Base 6.4.0
 _ZN19QQmlJSImportVisitor5visitEPN6QQmlJS3AST16ForEachStatementE@Base 6.4.0
 _ZN19QQmlJSImportVisitor5visitEPN6QQmlJS3AST17ExportDeclarationE@Base 6.4.0
 _ZN19QQmlJSImportVisitor5visitEPN6QQmlJS3AST17UiEnumDeclarationE@Base 6.4.0
 _ZN19QQmlJSImportVisitor5visitEPN6QQmlJS3AST17UiInlineComponentE@Base 6.4.0
 _ZN19QQmlJSImportVisitor5visitEPN6QQmlJS3AST18FunctionExpressionE@Base 6.4.0
 _ZN19QQmlJSImportVisitor5visitEPN6QQmlJS3AST18UiObjectDefinitionE@Base 6.4.0
 _ZN19QQmlJSImportVisitor5visitEPN6QQmlJS3AST19ExpressionStatementE@Base 6.4.0
 _ZN19QQmlJSImportVisitor5visitEPN6QQmlJS3AST19FormalParameterListE@Base 6.4.0
 _ZN19QQmlJSImportVisitor5visitEPN6QQmlJS3AST19FunctionDeclarationE@Base 6.4.0
 _ZN19QQmlJSImportVisitor5visitEPN6QQmlJS3AST20IdentifierExpressionE@Base 6.4.0
 _ZN19QQmlJSImportVisitor5visitEPN6QQmlJS3AST23VariableDeclarationListE@Base 6.4.0
 _ZN19QQmlJSImportVisitor5visitEPN6QQmlJS3AST5BlockE@Base 6.4.0
 _ZN19QQmlJSImportVisitor5visitEPN6QQmlJS3AST5CatchE@Base 6.4.0
 _ZN19QQmlJSImportVisitor5visitEPN6QQmlJS3AST7ProgramE@Base 6.4.0
 _ZN19QQmlJSImportVisitor5visitEPN6QQmlJS3AST8ESModuleE@Base 6.4.0
 _ZN19QQmlJSImportVisitor5visitEPN6QQmlJS3AST8UiImportE@Base 6.4.0
 _ZN19QQmlJSImportVisitor5visitEPN6QQmlJS3AST8UiPragmaE@Base 6.4.0
 _ZN19QQmlJSImportVisitor5visitEPN6QQmlJS3AST9CaseBlockE@Base 6.4.0
 _ZN19QQmlJSImportVisitor5visitEPN6QQmlJS3AST9UiProgramE@Base 6.4.0
 _ZN19QQmlJSImportVisitor8endVisitEPN6QQmlJS3AST12ForStatementE@Base 6.4.0
 _ZN19QQmlJSImportVisitor8endVisitEPN6QQmlJS3AST13WithStatementE@Base 6.4.0
 _ZN19QQmlJSImportVisitor8endVisitEPN6QQmlJS3AST14UiArrayBindingE@Base 6.4.0
 _ZN19QQmlJSImportVisitor8endVisitEPN6QQmlJS3AST14UiPublicMemberE@Base 6.4.0
 _ZN19QQmlJSImportVisitor8endVisitEPN6QQmlJS3AST15ClassExpressionE@Base 6.4.0
 _ZN19QQmlJSImportVisitor8endVisitEPN6QQmlJS3AST15UiObjectBindingE@Base 6.4.0
 _ZN19QQmlJSImportVisitor8endVisitEPN6QQmlJS3AST15UiScriptBindingE@Base 6.4.0
 _ZN19QQmlJSImportVisitor8endVisitEPN6QQmlJS3AST16ClassDeclarationE@Base 6.4.0
 _ZN19QQmlJSImportVisitor8endVisitEPN6QQmlJS3AST16ForEachStatementE@Base 6.4.0
 _ZN19QQmlJSImportVisitor8endVisitEPN6QQmlJS3AST17ExportDeclarationE@Base 6.4.0
 _ZN19QQmlJSImportVisitor8endVisitEPN6QQmlJS3AST17UiInlineComponentE@Base 6.4.0
 _ZN19QQmlJSImportVisitor8endVisitEPN6QQmlJS3AST18FunctionExpressionE@Base 6.4.0
 _ZN19QQmlJSImportVisitor8endVisitEPN6QQmlJS3AST18UiObjectDefinitionE@Base 6.4.0
 _ZN19QQmlJSImportVisitor8endVisitEPN6QQmlJS3AST19ExpressionStatementE@Base 6.4.0
 _ZN19QQmlJSImportVisitor8endVisitEPN6QQmlJS3AST19FunctionDeclarationE@Base 6.4.0
 _ZN19QQmlJSImportVisitor8endVisitEPN6QQmlJS3AST21FieldMemberExpressionE@Base 6.4.0
 _ZN19QQmlJSImportVisitor8endVisitEPN6QQmlJS3AST5BlockE@Base 6.4.0
 _ZN19QQmlJSImportVisitor8endVisitEPN6QQmlJS3AST5CatchE@Base 6.4.0
 _ZN19QQmlJSImportVisitor8endVisitEPN6QQmlJS3AST7ProgramE@Base 6.4.0
 _ZN19QQmlJSImportVisitor8endVisitEPN6QQmlJS3AST8ESModuleE@Base 6.4.0
 _ZN19QQmlJSImportVisitor8endVisitEPN6QQmlJS3AST9CaseBlockE@Base 6.4.0
 _ZN19QQmlJSImportVisitor8endVisitEPN6QQmlJS3AST9UiProgramE@Base 6.4.0
 _ZN19QQmlJSImportVisitorC1ERK22QDeferredSharedPointerI11QQmlJSScopeEP14QQmlJSImporterP12QQmlJSLoggerRK7QStringRK5QListIS9_E@Base 6.4.0
 _ZN19QQmlJSImportVisitorC2ERK22QDeferredSharedPointerI11QQmlJSScopeEP14QQmlJSImporterP12QQmlJSLoggerRK7QStringRK5QListIS9_E@Base 6.4.0
 _ZN19QQmlJSImportVisitorD0Ev@Base 6.4.0
 _ZN19QQmlJSImportVisitorD1Ev@Base 6.4.0
 _ZN19QQmlJSImportVisitorD2Ev@Base 6.4.0
 _ZN20QQmlJSTypePropagator11generate_AsEi@Base 6.4.0
 _ZN20QQmlJSTypePropagator11setRegisterEiRK21QQmlJSRegisterContent@Base 6.4.0
 _ZN20QQmlJSTypePropagator12generate_AddEi@Base 6.4.0
 _ZN20QQmlJSTypePropagator12generate_DivEi@Base 6.4.0
 _ZN20QQmlJSTypePropagator12generate_ExpEi@Base 6.4.0
 _ZN20QQmlJSTypePropagator12generate_ModEi@Base 6.4.0
 _ZN20QQmlJSTypePropagator12generate_MulEi@Base 6.4.0
 _ZN20QQmlJSTypePropagator12generate_RetEv@Base 6.4.0
 _ZN20QQmlJSTypePropagator12generate_ShlEi@Base 6.4.0
 _ZN20QQmlJSTypePropagator12generate_ShrEi@Base 6.4.0
 _ZN20QQmlJSTypePropagator12generate_SubEi@Base 6.4.0
 _ZN20QQmlJSTypePropagator13generate_JumpEi@Base 6.4.0
 _ZN20QQmlJSTypePropagator13generate_UNotEv@Base 6.4.0
 _ZN20QQmlJSTypePropagator13generate_UShrEi@Base 6.4.0
 _ZN20QQmlJSTypePropagator13mergeRegisterEiRK21QQmlJSRegisterContentS2_@Base 6.4.0
 _ZN20QQmlJSTypePropagator13propagateCallERK5QListI16QQmlJSMetaMethodEii@Base 6.4.0
 _ZN20QQmlJSTypePropagator14endInstructionEN3QV44Moth5Instr4TypeE@Base 6.4.0
 _ZN20QQmlJSTypePropagator14generate_BitOrEi@Base 6.4.0
 _ZN20QQmlJSTypePropagator14generate_CmpEqEi@Base 6.4.0
 _ZN20QQmlJSTypePropagator14generate_CmpGeEi@Base 6.4.0
 _ZN20QQmlJSTypePropagator14generate_CmpGtEi@Base 6.4.0
 _ZN20QQmlJSTypePropagator14generate_CmpInEi@Base 6.4.0
 _ZN20QQmlJSTypePropagator14generate_CmpLeEi@Base 6.4.0
 _ZN20QQmlJSTypePropagator14generate_CmpLtEi@Base 6.4.0
 _ZN20QQmlJSTypePropagator14generate_CmpNeEi@Base 6.4.0
 _ZN20QQmlJSTypePropagator14generate_DebugEv@Base 6.4.0
 _ZN20QQmlJSTypePropagator14generate_UPlusEv@Base 6.4.0
 _ZN20QQmlJSTypePropagator14generate_YieldEv@Base 6.4.0
 _ZN20QQmlJSTypePropagator14setAccumulatorERK21QQmlJSRegisterContent@Base 6.4.0
 _ZN20QQmlJSTypePropagator15addReadRegisterEiRK21QQmlJSRegisterContent@Base 6.4.0
 _ZN20QQmlJSTypePropagator15generate_BitAndEi@Base 6.4.0
 _ZN20QQmlJSTypePropagator15generate_BitXorEi@Base 6.4.0
 _ZN20QQmlJSTypePropagator15generate_ResumeEi@Base 6.4.0
 _ZN20QQmlJSTypePropagator15generate_UComplEv@Base 6.4.0
 _ZN20QQmlJSTypePropagator15generate_UMinusEv@Base 6.4.0
 _ZN20QQmlJSTypePropagator16bestMatchForCallERK5QListI16QQmlJSMetaMethodEiiPS0_I7QStringE@Base 6.4.0
 _ZN20QQmlJSTypePropagator16canConvertFromToERK21QQmlJSRegisterContentS2_@Base 6.4.0
 _ZN20QQmlJSTypePropagator16generate_LoadIntEi@Base 6.4.0
 _ZN20QQmlJSTypePropagator16generate_LoadRegEi@Base 6.4.0
 _ZN20QQmlJSTypePropagator16generate_MoveRegEii@Base 6.4.0
 _ZN20QQmlJSTypePropagator16recordEqualsTypeEi@Base 6.4.0
 _ZN20QQmlJSTypePropagator16startInstructionEN3QV44Moth5Instr4TypeE@Base 6.4.0
 _ZN20QQmlJSTypePropagator17generate_CallNameEiii@Base 6.4.0
 _ZN20QQmlJSTypePropagator17generate_CmpEqIntEi@Base 6.4.0
 _ZN20QQmlJSTypePropagator17generate_CmpNeIntEi@Base 6.4.0
 _ZN20QQmlJSTypePropagator17generate_JumpTrueEi@Base 6.4.0
 _ZN20QQmlJSTypePropagator17generate_LoadNameEi@Base 6.4.0
 _ZN20QQmlJSTypePropagator17generate_LoadNullEv@Base 6.4.0
 _ZN20QQmlJSTypePropagator17generate_LoadTrueEv@Base 6.4.0
 _ZN20QQmlJSTypePropagator17generate_LoadZeroEv@Base 6.4.0
 _ZN20QQmlJSTypePropagator17generate_ShlConstEi@Base 6.4.0
 _ZN20QQmlJSTypePropagator17generate_ShrConstEi@Base 6.4.0
 _ZN20QQmlJSTypePropagator17generate_StoreRegEi@Base 6.4.0
 _ZN20QQmlJSTypePropagator17generate_TailCallEiiii@Base 6.4.0
 _ZN20QQmlJSTypePropagator17generate_ToObjectEv@Base 6.4.0
 _ZN20QQmlJSTypePropagator17recordCompareTypeEi@Base 6.4.0
 _ZN20QQmlJSTypePropagator18generate_CallValueEiii@Base 6.4.0
 _ZN20QQmlJSTypePropagator18generate_CmpEqNullEv@Base 6.4.0
 _ZN20QQmlJSTypePropagator18generate_CmpNeNullEv@Base 6.4.0
 _ZN20QQmlJSTypePropagator18generate_ConstructEiii@Base 6.4.0
 _ZN20QQmlJSTypePropagator18generate_DecrementEv@Base 6.4.0
 _ZN20QQmlJSTypePropagator18generate_GetLookupEi@Base 6.4.0
 _ZN20QQmlJSTypePropagator18generate_IncrementEv@Base 6.4.0
 _ZN20QQmlJSTypePropagator18generate_JumpFalseEi@Base 6.4.0
 _ZN20QQmlJSTypePropagator18generate_LoadConstEi@Base 6.4.0
 _ZN20QQmlJSTypePropagator18generate_LoadFalseEv@Base 6.4.0
 _ZN20QQmlJSTypePropagator18generate_LoadLocalEi@Base 6.4.0
 _ZN20QQmlJSTypePropagator18generate_MoveConstEii@Base 6.4.0
 _ZN20QQmlJSTypePropagator18generate_SetLookupEii@Base 6.4.0
 _ZN20QQmlJSTypePropagator18generate_UShrConstEi@Base 6.4.0
 _ZN20QQmlJSTypePropagator18generate_YieldStarEv@Base 6.4.0
 _ZN20QQmlJSTypePropagator19generate_BitOrConstEi@Base 6.4.0
 _ZN20QQmlJSTypePropagator19generate_DeclareVarEii@Base 6.4.0
 _ZN20QQmlJSTypePropagator19generate_DeleteNameEi@Base 6.4.0
 _ZN20QQmlJSTypePropagator19generate_LoadImportEi@Base 6.4.0
 _ZN20QQmlJSTypePropagator19generate_MoveRegExpEii@Base 6.4.0
 _ZN20QQmlJSTypePropagator19generate_PopContextEv@Base 6.4.0
 _ZN20QQmlJSTypePropagator19generate_StoreLocalEi@Base 6.4.0
 _ZN20QQmlJSTypePropagator19generate_TypeofNameEi@Base 6.4.0
 _ZN20QQmlJSTypePropagator19recordEqualsIntTypeEv@Base 6.4.0
 _ZN20QQmlJSTypePropagator20checkedInputRegisterEi@Base 6.4.0
 _ZN20QQmlJSTypePropagator20generate_BitAndConstEi@Base 6.4.0
 _ZN20QQmlJSTypePropagator20generate_BitXorConstEi@Base 6.4.0
 _ZN20QQmlJSTypePropagator20generate_CallElementEiiii@Base 6.4.0
 _ZN20QQmlJSTypePropagator20generate_CreateClassEiii@Base 6.4.0
 _ZN20QQmlJSTypePropagator20generate_DefineArrayEii@Base 6.4.0
 _ZN20QQmlJSTypePropagator20generate_GetIteratorEi@Base 6.4.0
 _ZN20QQmlJSTypePropagator20generate_LoadClosureEi@Base 6.4.0
 _ZN20QQmlJSTypePropagator20generate_LoadElementEi@Base 6.4.0
 _ZN20QQmlJSTypePropagator20generate_TypeofValueEv@Base 6.4.0
 _ZN20QQmlJSTypePropagator20recordEqualsNullTypeEv@Base 6.4.0
 _ZN20QQmlJSTypePropagator21generate_CallPropertyEiiii@Base 6.4.0
 _ZN20QQmlJSTypePropagator21generate_GetExceptionEv@Base 6.4.0
 _ZN20QQmlJSTypePropagator21generate_IteratorNextEii@Base 6.4.0
 _ZN20QQmlJSTypePropagator21generate_LoadPropertyEi@Base 6.4.0
 _ZN20QQmlJSTypePropagator21generate_SetExceptionEv@Base 6.4.0
 _ZN20QQmlJSTypePropagator21generate_StoreElementEii@Base 6.4.0
 _ZN20QQmlJSTypePropagator22generate_CmpInstanceOfEi@Base 6.4.0
 _ZN20QQmlJSTypePropagator22generate_IteratorCloseEi@Base 6.4.0
 _ZN20QQmlJSTypePropagator22generate_LoadUndefinedEv@Base 6.4.0
 _ZN20QQmlJSTypePropagator22generate_StorePropertyEii@Base 6.4.0
 _ZN20QQmlJSTypePropagator22generate_UnwindToLabelEii@Base 6.4.0
 _ZN20QQmlJSTypePropagator23generate_CallWithSpreadEiiii@Base 6.4.0
 _ZN20QQmlJSTypePropagator23generate_CheckExceptionEv@Base 6.4.0
 _ZN20QQmlJSTypePropagator23generate_CmpStrictEqualEi@Base 6.4.0
 _ZN20QQmlJSTypePropagator23generate_DeletePropertyEii@Base 6.4.0
 _ZN20QQmlJSTypePropagator23generate_ThrowExceptionEv@Base 6.4.0
 _ZN20QQmlJSTypePropagator23generate_UnwindDispatchEv@Base 6.4.0
 _ZN20QQmlJSTypePropagator23propagatePropertyLookupERK7QString@Base 6.4.0
 _ZN20QQmlJSTypePropagator24generate_JumpNoExceptionEi@Base 6.4.0
 _ZN20QQmlJSTypePropagator24generate_LoadScopedLocalEii@Base 6.4.0
 _ZN20QQmlJSTypePropagator24generate_PushWithContextEv@Base 6.4.0
 _ZN20QQmlJSTypePropagator24generate_StoreNameSloppyEi@Base 6.4.0
 _ZN20QQmlJSTypePropagator24generate_StoreNameStrictEi@Base 6.4.0
 _ZN20QQmlJSTypePropagator24propagateBinaryOperationEN10QSOperator2OpEi@Base 6.4.0
 _ZN20QQmlJSTypePropagator24propagateScopeLookupCallERK7QStringii@Base 6.4.0
 _ZN20QQmlJSTypePropagator24saveRegisterStateForJumpEi@Base 6.4.0
 _ZN20QQmlJSTypePropagator25generate_CallGlobalLookupEiii@Base 6.4.0
 _ZN20QQmlJSTypePropagator25generate_CallWithReceiverEiiii@Base 6.4.0
 _ZN20QQmlJSTypePropagator25generate_JumpNotUndefinedEi@Base 6.4.0
 _ZN20QQmlJSTypePropagator25generate_LoadGlobalLookupEi@Base 6.4.0
 _ZN20QQmlJSTypePropagator25generate_PopScriptContextEv@Base 6.4.0
 _ZN20QQmlJSTypePropagator25generate_PushBlockContextEi@Base 6.4.0
 _ZN20QQmlJSTypePropagator25generate_PushCatchContextEii@Base 6.4.0
 _ZN20QQmlJSTypePropagator25generate_SetUnwindHandlerEi@Base 6.4.0
 _ZN20QQmlJSTypePropagator25generate_StoreScopedLocalEii@Base 6.4.0
 _ZN20QQmlJSTypePropagator26generate_CloneBlockContextEv@Base 6.4.0
 _ZN20QQmlJSTypePropagator26generate_CmpStrictNotEqualEi@Base 6.4.0
 _ZN20QQmlJSTypePropagator26generate_CreateCallContextEv@Base 6.4.0
 _ZN20QQmlJSTypePropagator26generate_GetOptionalLookupEii@Base 6.4.0
 _ZN20QQmlJSTypePropagator26generate_GetTemplateObjectEi@Base 6.4.0
 _ZN20QQmlJSTypePropagator26generate_LoadRuntimeStringEi@Base 6.4.0
 _ZN20QQmlJSTypePropagator26generate_LoadSuperPropertyEi@Base 6.4.0
 _ZN20QQmlJSTypePropagator26generate_PushScriptContextEi@Base 6.4.0
 _ZN20QQmlJSTypePropagator27generate_CallPropertyLookupEiiii@Base 6.4.0
 _ZN20QQmlJSTypePropagator27generate_StoreSuperPropertyEi@Base 6.4.0
 _ZN20QQmlJSTypePropagator28generate_ConstructWithSpreadEiii@Base 6.4.0
 _ZN20QQmlJSTypePropagator28generate_ConvertThisToObjectEv@Base 6.4.0
 _ZN20QQmlJSTypePropagator28generate_CreateRestParameterEi@Base 6.4.0
 _ZN20QQmlJSTypePropagator28generate_DefineObjectLiteralEiii@Base 6.4.0
 _ZN20QQmlJSTypePropagator29generate_LoadOptionalPropertyEii@Base 6.4.0
 _ZN20QQmlJSTypePropagator29generate_LoadSuperConstructorEv@Base 6.4.0
 _ZN20QQmlJSTypePropagator30generate_DeadTemporalZoneCheckEi@Base 6.4.0
 _ZN20QQmlJSTypePropagator31generate_CallPossiblyDirectEvalEii@Base 6.4.0
 _ZN20QQmlJSTypePropagator31generate_DestructureRestElementEv@Base 6.4.0
 _ZN20QQmlJSTypePropagator31generate_ThrowOnNullOrUndefinedEv@Base 6.4.0
 _ZN20QQmlJSTypePropagator33generate_IteratorNextForYieldStarEii@Base 6.4.0
 _ZN20QQmlJSTypePropagator36generate_CreateMappedArgumentsObjectEv@Base 6.4.0
 _ZN20QQmlJSTypePropagator37generate_CallQmlContextPropertyLookupEiii@Base 6.4.0
 _ZN20QQmlJSTypePropagator37generate_LoadQmlContextPropertyLookupEi@Base 6.4.0
 _ZN20QQmlJSTypePropagator38generate_CreateUnmappedArgumentsObjectEv@Base 6.4.0
 _ZN20QQmlJSTypePropagator3runEPKN17QQmlJSCompilePass8FunctionEPN6QQmlJS17DiagnosticMessageE@Base 6.4.0
 _ZN20QQmlJSTypePropagator40generate_InitializeBlockDeadTemporalZoneEii@Base 6.4.0
 _ZN20QQmlJSTypePropagatorC1EPKN3QV48Compiler15JSUnitGeneratorEPK18QQmlJSTypeResolverP12QQmlJSLoggerP14QQmlJSTypeInfoPN6QQmlSA11PassManagerE@Base 6.4.0
 _ZN20QQmlJSTypePropagatorC2EPKN3QV48Compiler15JSUnitGeneratorEPK18QQmlJSTypeResolverP12QQmlJSLoggerP14QQmlJSTypeInfoPN6QQmlSA11PassManagerE@Base 6.4.0
 _ZN21QQmlJSRegisterContent6createERK22QDeferredSharedPointerIK11QQmlJSScopeE5QListIS3_ES5_NS_14ContentVariantES5_@Base 6.4.0
 _ZN21QQmlJSRegisterContent6createERK22QDeferredSharedPointerIK11QQmlJSScopeERK14QQmlJSMetaEnumRK7QStringNS_14ContentVariantES5_@Base 6.4.0
 _ZN21QQmlJSRegisterContent6createERK22QDeferredSharedPointerIK11QQmlJSScopeERK18QQmlJSMetaPropertyNS_14ContentVariantES5_@Base 6.4.0
 _ZN21QQmlJSRegisterContent6createERK22QDeferredSharedPointerIK11QQmlJSScopeERK5QListI16QQmlJSMetaMethodENS_14ContentVariantES5_@Base 6.4.0
 _ZN21QQmlJSRegisterContent6createERK22QDeferredSharedPointerIK11QQmlJSScopeES5_NS_14ContentVariantES5_@Base 6.4.0
 _ZN21QQmlJSRegisterContent6createERK22QDeferredSharedPointerIK11QQmlJSScopeEjNS_14ContentVariantES5_@Base 6.4.0
 _ZN24QQmlJSResourceFileMapper14allQmlJSFilterEv@Base 6.4.0
 _ZN24QQmlJSResourceFileMapper15localFileFilterERK7QString@Base 6.4.0
 _ZN24QQmlJSResourceFileMapper18resourceFileFilterERK7QString@Base 6.4.0
 _ZN24QQmlJSResourceFileMapper19populateFromQrcFileER5QFile@Base 6.4.0
 _ZN24QQmlJSResourceFileMapper26resourceQmlDirectoryFilterERK7QString@Base 6.4.0
 _ZN24QQmlJSResourceFileMapperC1ERK5QListI7QStringE@Base 6.4.0
 _ZN24QQmlJSResourceFileMapperC2ERK5QListI7QStringE@Base 6.4.0
 _ZN24QQmlJSStorageGeneralizer3runE8QFlatMapIiN17QQmlJSCompilePass21InstructionAnnotationESt4lessIiE5QListIiES5_IS2_EEPNS1_8FunctionEPN6QQmlJS17DiagnosticMessageE@Base 6.4.0
 _ZN25QQmlJSFunctionInitializer17populateSignatureEPKN3QV48Compiler7ContextEPN6QQmlJS3AST18FunctionExpressionEPN17QQmlJSCompilePass8FunctionEPNS5_17DiagnosticMessageE@Base 6.4.0
 _ZN25QQmlJSFunctionInitializer3runEPKN3QV48Compiler7ContextERK7QStringRKN5QmlIR7BindingEPN6QQmlJS17DiagnosticMessageE@Base 6.4.0
 _ZN25QQmlJSFunctionInitializer3runEPKN3QV48Compiler7ContextERK7QStringRKN5QmlIR8FunctionEPN6QQmlJS17DiagnosticMessageE@Base 6.4.0
 _ZN25QQmlJSLiteralBindingCheck3runEP19QQmlJSImportVisitorP18QQmlJSTypeResolver@Base 6.4.0
 _ZN27QQmlJSTypeDescriptionReader10addWarningERKN6QQmlJS14SourceLocationERK7QString@Base 6.4.0
 _ZN27QQmlJSTypeDescriptionReader10readModuleEPN6QQmlJS3AST18UiObjectDefinitionE@Base 6.4.0
 _ZN27QQmlJSTypeDescriptionReader11readExportsEPN6QQmlJS3AST15UiScriptBindingE@Base 6.4.0
 _ZN27QQmlJSTypeDescriptionReader12readDocumentEPN6QQmlJS3AST9UiProgramE@Base 6.4.0
 _ZN27QQmlJSTypeDescriptionReader12readPropertyEPN6QQmlJS3AST18UiObjectDefinitionERK22QDeferredSharedPointerI11QQmlJSScopeE@Base 6.4.0
 _ZN27QQmlJSTypeDescriptionReader13readComponentEPN6QQmlJS3AST18UiObjectDefinitionE@Base 6.4.0
 _ZN27QQmlJSTypeDescriptionReader13readParameterEPN6QQmlJS3AST18UiObjectDefinitionEP16QQmlJSMetaMethod@Base 6.4.0
 _ZN27QQmlJSTypeDescriptionReader14readEnumValuesEPN6QQmlJS3AST15UiScriptBindingEP14QQmlJSMetaEnum@Base 6.4.0
 _ZN27QQmlJSTypeDescriptionReader14readIntBindingEPN6QQmlJS3AST15UiScriptBindingE@Base 6.4.0
 _ZN27QQmlJSTypeDescriptionReader14readInterfacesEPN6QQmlJS3AST15UiScriptBindingERK22QDeferredSharedPointerI11QQmlJSScopeE@Base 6.4.0
 _ZN27QQmlJSTypeDescriptionReader14readStringListEPN6QQmlJS3AST15UiScriptBindingE@Base 6.4.0
 _ZN27QQmlJSTypeDescriptionReader15readBoolBindingEPN6QQmlJS3AST15UiScriptBindingE@Base 6.4.0
 _ZN27QQmlJSTypeDescriptionReader16readDependenciesEPN6QQmlJS3AST15UiScriptBindingE@Base 6.4.0
 _ZN27QQmlJSTypeDescriptionReader17readDeferredNamesEPN6QQmlJS3AST15UiScriptBindingERK22QDeferredSharedPointerI11QQmlJSScopeE@Base 6.4.0
 _ZN27QQmlJSTypeDescriptionReader17readStringBindingEPN6QQmlJS3AST15UiScriptBindingE@Base 6.4.0
 _ZN27QQmlJSTypeDescriptionReader18readImmediateNamesEPN6QQmlJS3AST15UiScriptBindingERK22QDeferredSharedPointerI11QQmlJSScopeE@Base 6.4.0
 _ZN27QQmlJSTypeDescriptionReader18readNumericBindingEPN6QQmlJS3AST15UiScriptBindingE@Base 6.4.0
 _ZN27QQmlJSTypeDescriptionReader18readSignalOrMethodEPN6QQmlJS3AST18UiObjectDefinitionEbRK22QDeferredSharedPointerI11QQmlJSScopeE@Base 6.4.0
 _ZN27QQmlJSTypeDescriptionReader24checkMetaObjectRevisionsEPN6QQmlJS3AST15UiScriptBindingEP5QListIN11QQmlJSScope6ExportEE@Base 6.4.0
 _ZN27QQmlJSTypeDescriptionReader25readNumericVersionBindingEPN6QQmlJS3AST15UiScriptBindingE@Base 6.4.0
 _ZN27QQmlJSTypeDescriptionReader8addErrorERKN6QQmlJS14SourceLocationERK7QString@Base 6.4.0
 _ZN27QQmlJSTypeDescriptionReader8getArrayEPN6QQmlJS3AST15UiScriptBindingE@Base 6.4.0
 _ZN27QQmlJSTypeDescriptionReader8readEnumEPN6QQmlJS3AST18UiObjectDefinitionERK22QDeferredSharedPointerI11QQmlJSScopeE@Base 6.4.0
 _ZN27QQmlJSTypeDescriptionReaderclEP5QHashI7QStringN11QQmlJSScope13ExportedScopeI22QDeferredSharedPointerIS2_EEEEP5QListIS1_E@Base 6.4.0
 _ZN6QQmlSA11ElementPass9shouldRunERK22QDeferredSharedPointerIK11QQmlJSScopeE@Base 6.4.0
 _ZN6QQmlSA11GenericPass11emitWarningE14QAnyStringViewN6QQmlJS14SourceLocationE@Base 6.4.0
 _ZN6QQmlSA11GenericPass11resolveTypeE14QAnyStringViewS1_@Base 6.4.0
 _ZN6QQmlSA11GenericPassC1EPNS_11PassManagerE@Base 6.4.0
 _ZN6QQmlSA11GenericPassC2EPNS_11PassManagerE@Base 6.4.0
 _ZN6QQmlSA11GenericPassD0Ev@Base 6.4.0
 _ZN6QQmlSA11GenericPassD1Ev@Base 6.4.0
 _ZN6QQmlSA11GenericPassD2Ev@Base 6.4.0
 _ZN6QQmlSA11PassManager11analyzeReadERK22QDeferredSharedPointerIK11QQmlJSScopeE7QStringS6_N6QQmlJS14SourceLocationE@Base 6.4.0
 _ZN6QQmlSA11PassManager12analyzeWriteERK22QDeferredSharedPointerIK11QQmlJSScopeE7QStringS6_S6_N6QQmlJS14SourceLocationE@Base 6.4.0
 _ZN6QQmlSA11PassManager14analyzeBindingERK22QDeferredSharedPointerIK11QQmlJSScopeES6_N6QQmlJS14SourceLocationE@Base 6.4.0
 _ZN6QQmlSA11PassManager19registerElementPassESt10unique_ptrINS_11ElementPassESt14default_deleteIS2_EE@Base 6.4.0
 _ZN6QQmlSA11PassManager20registerPropertyPassESt10shared_ptrINS_12PropertyPassEE14QAnyStringViewS4_S4_b@Base 6.4.0
 _ZN6QQmlSA11PassManager21findPropertyUsePassesERK22QDeferredSharedPointerIK11QQmlJSScopeERK7QString@Base 6.4.0
 _ZN6QQmlSA11PassManager25addBindingSourceLocationsERK22QDeferredSharedPointerIK11QQmlJSScopeES6_7QStringb@Base 6.4.0
 _ZN6QQmlSA11PassManager7analyzeERK22QDeferredSharedPointerIK11QQmlJSScopeE@Base 6.4.0
 _ZN6QQmlSA12PropertyPass6onReadERK22QDeferredSharedPointerIK11QQmlJSScopeERK7QStringS6_N6QQmlJS14SourceLocationE@Base 6.4.0
 _ZN6QQmlSA12PropertyPass7onWriteERK22QDeferredSharedPointerIK11QQmlJSScopeERK7QStringS6_S6_N6QQmlJS14SourceLocationE@Base 6.4.0
 _ZN6QQmlSA12PropertyPass9onBindingERK22QDeferredSharedPointerIK11QQmlJSScopeERK7QStringRK25QQmlJSMetaPropertyBindingS6_S6_@Base 6.4.0
 _ZN6QQmlSA12PropertyPassC1EPNS_11PassManagerE@Base 6.4.0
 _ZN6QQmlSA12PropertyPassC2EPNS_11PassManagerE@Base 6.4.0
 _ZN6QQmlSA16DebugElementPass3runERK22QDeferredSharedPointerIK11QQmlJSScopeE@Base 6.4.0
 _ZN6QQmlSA17DebugPropertyPass6onReadERK22QDeferredSharedPointerIK11QQmlJSScopeERK7QStringS6_N6QQmlJS14SourceLocationE@Base 6.4.0
 _ZN6QQmlSA17DebugPropertyPass7onWriteERK22QDeferredSharedPointerIK11QQmlJSScopeERK7QStringS6_S6_N6QQmlJS14SourceLocationE@Base 6.4.0
 _ZN6QQmlSA17DebugPropertyPass9onBindingERK22QDeferredSharedPointerIK11QQmlJSScopeERK7QStringRK25QQmlJSMetaPropertyBindingS6_S6_@Base 6.4.0
 _ZN6QQmlSA17DebugPropertyPassC1EPNS_11PassManagerE@Base 6.4.0
 _ZN6QQmlSA17DebugPropertyPassC2EPNS_11PassManagerE@Base 6.4.0
 _ZNK11QQmlJSScope10isResolvedEv@Base 6.4.0
 _ZNK11QQmlJSScope10propertiesEv@Base 6.4.0
 _ZNK11QQmlJSScope11enumerationERK7QString@Base 6.4.0
 _ZNK11QQmlJSScope11hasPropertyERK7QString@Base 6.4.0
 _ZNK11QQmlJSScope12attachedTypeEv@Base 6.4.0
 _ZNK11QQmlJSScope12baseTypeNameEv@Base 6.4.0
 _ZNK11QQmlJSScope12enumerationsEv@Base 6.4.0
 _ZNK11QQmlJSScope12hasInterfaceERK7QString@Base 6.4.0
 _ZNK11QQmlJSScope13baseTypeErrorEv@Base 6.4.0
 _ZNK11QQmlJSScope14hasEnumerationERK7QString@Base 6.4.0
 _ZNK11QQmlJSScope14isNameDeferredERK7QString@Base 6.4.0
 _ZNK11QQmlJSScope15isFullyResolvedEv@Base 6.4.0
 _ZNK11QQmlJSScope16attachedTypeNameEv@Base 6.4.0
 _ZNK11QQmlJSScope16findJSIdentifierERK7QString@Base 6.4.0
 _ZNK11QQmlJSScope16propertyBindingsERK7QString@Base 6.4.0
 _ZNK11QQmlJSScope17hasEnumerationKeyERK7QString@Base 6.4.0
 _ZNK11QQmlJSScope18isIdInCurrentScopeERK7QString@Base 6.4.0
 _ZNK11QQmlJSScope18isPropertyRequiredERK7QString@Base 6.4.0
 _ZNK11QQmlJSScope18parentPropertyNameEv@Base 6.4.0
 _ZNK11QQmlJSScope19defaultPropertyNameEv@Base 6.4.0
 _ZNK11QQmlJSScope19hasPropertyBindingsERK7QString@Base 6.4.0
 _ZNK11QQmlJSScope21isIdInCurrentJSScopesERK7QString@Base 6.4.0
 _ZNK11QQmlJSScope22isComponentRootElementEv@Base 6.4.0
 _ZNK11QQmlJSScope22isIdInCurrentQmlScopesERK7QString@Base 6.4.0
 _ZNK11QQmlJSScope22isIdInjectedFromSignalERK7QString@Base 6.4.0
 _ZNK11QQmlJSScope22isInCustomParserParentEv@Base 6.4.0
 _ZNK11QQmlJSScope25isPropertyLocallyRequiredERK7QString@Base 6.4.0
 _ZNK11QQmlJSScope31ownPropertyBindingsInQmlIROrderEv@Base 6.4.0
 _ZNK11QQmlJSScope6Export7isValidEv@Base 6.4.0
 _ZNK11QQmlJSScope6Import7isValidEv@Base 6.4.0
 _ZNK11QQmlJSScope7methodsERK7QString@Base 6.4.0
 _ZNK11QQmlJSScope7methodsERK7QStringN16QQmlJSMetaMethod4TypeE@Base 6.4.0
 _ZNK11QQmlJSScope7methodsEv@Base 6.4.0
 _ZNK11QQmlJSScope8propertyERK7QString@Base 6.4.0
 _ZNK11QQmlJSScope9canAssignERK22QDeferredSharedPointerIKS_E@Base 6.4.0
 _ZNK11QQmlJSScope9hasMethodERK7QString@Base 6.4.0
 _ZNK12QColorOutput8colorifyE11QStringViewi@Base 6.4.0
 _ZNK12QColorOutput8isSilentEv@Base 6.4.0
 _ZNK14QQmlJSImporter14jsGlobalObjectEv@Base 6.4.0
 (optional=templinst)_ZNK16QDeferredFactoryI11QQmlJSScopeE8populateERK14QSharedPointerIS0_E@Base 6.4.0
 _ZNK17QQmlJSAotCompiler10globalCodeEv@Base 6.4.0
 _ZNK17QQmlJSAotCompiler8diagnoseERK7QString9QtMsgTypeRKN6QQmlJS14SourceLocationE@Base 6.4.0
 _ZNK18QQmlJSCompileError7augmentERK7QString@Base 6.4.0
 _ZNK18QQmlJSTypeResolver10checkEnumsERK22QDeferredSharedPointerIK11QQmlJSScopeERK7QStringP21QQmlJSRegisterContentNS1_13ExtensionKindE@Base 6.4.0
 _ZNK18QQmlJSTypeResolver10globalTypeERK22QDeferredSharedPointerIK11QQmlJSScopeE@Base 6.4.0
 _ZNK18QQmlJSTypeResolver10isIntegralERK21QQmlJSRegisterContent@Base 6.4.0
 _ZNK18QQmlJSTypeResolver10memberTypeERK21QQmlJSRegisterContentRK7QString@Base 6.4.0
 _ZNK18QQmlJSTypeResolver10memberTypeERK22QDeferredSharedPointerIK11QQmlJSScopeERK7QString@Base 6.4.0
 _ZNK18QQmlJSTypeResolver10returnTypeERK22QDeferredSharedPointerIK11QQmlJSScopeEN21QQmlJSRegisterContent14ContentVariantE@Base 6.4.0
 _ZNK18QQmlJSTypeResolver10scopeForIdERK7QStringRK22QDeferredSharedPointerIK11QQmlJSScopeE@Base 6.4.0
 _ZNK18QQmlJSTypeResolver10scopedTypeERK22QDeferredSharedPointerIK11QQmlJSScopeERK7QString@Base 6.4.0
 _ZNK18QQmlJSTypeResolver10storedTypeERK22QDeferredSharedPointerIK11QQmlJSScopeE@Base 6.4.0
 _ZNK18QQmlJSTypeResolver11genericTypeERK22QDeferredSharedPointerIK11QQmlJSScopeENS_18ComponentIsGenericE@Base 6.4.0
 _ZNK18QQmlJSTypeResolver11isPrimitiveERK21QQmlJSRegisterContent@Base 6.4.0
 _ZNK18QQmlJSTypeResolver11isPrimitiveERK22QDeferredSharedPointerIK11QQmlJSScopeE@Base 6.4.0
 _ZNK18QQmlJSTypeResolver11trackedTypeERK22QDeferredSharedPointerIK11QQmlJSScopeE@Base 6.4.0
 (optional=templinst)_ZNK18QQmlJSTypeResolver11transformedERK21QQmlJSRegisterContentMS_KF22QDeferredSharedPointerIK11QQmlJSScopeERKS6_E@Base 6.4.0
 _ZNK18QQmlJSTypeResolver11typeFromASTEPN6QQmlJS3AST4TypeE@Base 6.4.0
 _ZNK18QQmlJSTypeResolver12originalTypeERK22QDeferredSharedPointerIK11QQmlJSScopeE@Base 6.4.0
 _ZNK18QQmlJSTypeResolver12typeForConstEy@Base 6.4.0
 _ZNK18QQmlJSTypeResolver13containedTypeERK21QQmlJSRegisterContent@Base 6.4.0
 _ZNK18QQmlJSTypeResolver14comparableTypeERK22QDeferredSharedPointerIK11QQmlJSScopeE@Base 6.4.0
 _ZNK18QQmlJSTypeResolver14generalizeTypeERK22QDeferredSharedPointerIK11QQmlJSScopeE@Base 6.4.0
 _ZNK18QQmlJSTypeResolver14lengthPropertyEbRK22QDeferredSharedPointerIK11QQmlJSScopeE@Base 6.4.0
 _ZNK18QQmlJSTypeResolver14memberEnumTypeERK22QDeferredSharedPointerIK11QQmlJSScopeERK7QString@Base 6.4.0
 _ZNK18QQmlJSTypeResolver16canConvertFromToERK21QQmlJSRegisterContentS2_@Base 6.4.0
 _ZNK18QQmlJSTypeResolver16canConvertFromToERK22QDeferredSharedPointerIK11QQmlJSScopeES5_@Base 6.4.0
 _ZNK18QQmlJSTypeResolver16canHoldUndefinedERK21QQmlJSRegisterContent@Base 6.4.0
 _ZNK18QQmlJSTypeResolver16registerContainsERK21QQmlJSRegisterContentRK22QDeferredSharedPointerIK11QQmlJSScopeE@Base 6.4.0
 _ZNK18QQmlJSTypeResolver16scopeForLocationERKN3QV412CompiledData8LocationE@Base 6.4.0
 _ZNK18QQmlJSTypeResolver17adjustTrackedTypeERK22QDeferredSharedPointerIK11QQmlJSScopeERK5QListIS3_E@Base 6.4.0
 _ZNK18QQmlJSTypeResolver17adjustTrackedTypeERK22QDeferredSharedPointerIK11QQmlJSScopeES5_@Base 6.4.0
 _ZNK18QQmlJSTypeResolver17containedTypeNameERK21QQmlJSRegisterContentb@Base 6.4.0
 _ZNK18QQmlJSTypeResolver18registerIsStoredInERK21QQmlJSRegisterContentRK22QDeferredSharedPointerIK11QQmlJSScopeE@Base 6.4.0
 _ZNK18QQmlJSTypeResolver20referenceTypeForNameERK7QStringRK22QDeferredSharedPointerIK11QQmlJSScopeEb@Base 6.4.0
 _ZNK18QQmlJSTypeResolver20trackedContainedTypeERK21QQmlJSRegisterContent@Base 6.4.0
 _ZNK18QQmlJSTypeResolver21originalContainedTypeERK21QQmlJSRegisterContent@Base 6.4.0
 _ZNK18QQmlJSTypeResolver21trackListPropertyTypeERK22QDeferredSharedPointerIK11QQmlJSScopeE@Base 6.4.0
 _ZNK18QQmlJSTypeResolver22typeForBinaryOperationEN10QSOperator2OpERK21QQmlJSRegisterContentS4_@Base 6.4.0
 _ZNK18QQmlJSTypeResolver27canPrimitivelyConvertFromToERK22QDeferredSharedPointerIK11QQmlJSScopeES5_@Base 6.4.0
 _ZNK18QQmlJSTypeResolver31typeForArithmeticUnaryOperationENS_13UnaryOperatorERK21QQmlJSRegisterContent@Base 6.4.0
 _ZNK18QQmlJSTypeResolver5mergeERK21QQmlJSRegisterContentS2_@Base 6.4.0
 _ZNK18QQmlJSTypeResolver5mergeERK22QDeferredSharedPointerIK11QQmlJSScopeES5_@Base 6.4.0
 _ZNK18QQmlJSTypeResolver6equalsERK22QDeferredSharedPointerIK11QQmlJSScopeES5_@Base 6.4.0
 _ZNK18QQmlJSTypeResolver7convertERK21QQmlJSRegisterContentS2_@Base 6.4.0
 _ZNK18QQmlJSTypeResolver7trackedERK21QQmlJSRegisterContent@Base 6.4.0
 _ZNK18QQmlJSTypeResolver8listTypeERK22QDeferredSharedPointerIK11QQmlJSScopeENS_8ListModeE@Base 6.4.0
 _ZNK18QQmlJSTypeResolver8originalERK21QQmlJSRegisterContent@Base 6.4.0
 _ZNK18QQmlJSTypeResolver9isNumericERK21QQmlJSRegisterContent@Base 6.4.0
 _ZNK18QQmlJSTypeResolver9isNumericERK22QDeferredSharedPointerIK11QQmlJSScopeE@Base 6.4.0
 _ZNK18QQmlJSTypeResolver9valueTypeERK21QQmlJSRegisterContent@Base 6.4.0
 _ZNK19QQmlJSCodeGenerator10nextJSLineEj@Base 6.4.0
 _ZNK19QQmlJSCodeGenerator12registerTypeEi@Base 6.4.0
 _ZNK19QQmlJSCodeGenerator14castTargetNameERK22QDeferredSharedPointerIK11QQmlJSScopeE@Base 6.4.0
 _ZNK19QQmlJSCodeGenerator16metaTypeFromNameERK22QDeferredSharedPointerIK11QQmlJSScopeE@Base 6.4.0
 _ZNK19QQmlJSCodeGenerator16metaTypeFromTypeERK22QDeferredSharedPointerIK11QQmlJSScopeE@Base 6.4.0
 _ZNK19QQmlJSCodeGenerator16registerVariableEi@Base 6.4.0
 _ZNK19QQmlJSCodeGenerator23changedRegisterVariableEv@Base 6.4.0
 _ZNK19QQmlJSImportVisitor14isImportPrefixE7QString@Base 6.4.0
 _ZNK19QQmlJSImportVisitor41populateRuntimeFunctionIndicesForDocumentEv@Base 6.4.0
 _ZNK19QQmlJSImportVisitor47synthesizeCompilationUnitRuntimeFunctionIndicesERK22QDeferredSharedPointerI11QQmlJSScopeEi@Base 6.4.0
 _ZNK20QQmlJSTypePropagator12isRestrictedERK7QString@Base 6.4.0
 _ZNK20QQmlJSTypePropagator12registerNameEi@Base 6.4.0
 _ZNK20QQmlJSTypePropagator15checkDeprecatedE22QDeferredSharedPointerIK11QQmlJSScopeERK7QStringb@Base 6.4.0
 _ZNK20QQmlJSTypePropagator17isCallingPropertyE22QDeferredSharedPointerIK11QQmlJSScopeERK7QString@Base 6.4.0
 _ZNK20QQmlJSTypePropagator18propertyResolutionE22QDeferredSharedPointerIK11QQmlJSScopeERK7QString@Base 6.4.1
 _ZNK20QQmlJSTypePropagator23handleUnqualifiedAccessERK7QStringb@Base 6.4.0
 _ZNK20QQmlJSTypePropagator24getCurrentSourceLocationEv@Base 6.4.0
 _ZNK20QQmlJSTypePropagator31getCurrentBindingSourceLocationEv@Base 6.4.0
 _ZNK21QQmlJSRegisterContent10isWritableEv@Base 6.4.0
 _ZNK21QQmlJSRegisterContent15descriptiveNameEv@Base 6.4.0
 _ZNK21QQmlJSRegisterContent6isListEv@Base 6.4.0
 _ZNK24QQmlJSResourceFileMapper13resourcePathsERKNS_6FilterE@Base 6.4.0
 _ZNK24QQmlJSResourceFileMapper5entryERKNS_6FilterE@Base 6.4.0
 _ZNK24QQmlJSResourceFileMapper6filterERKNS_6FilterE@Base 6.4.0
 _ZNK24QQmlJSResourceFileMapper6isFileERK7QString@Base 6.4.0
 _ZNK24QQmlJSResourceFileMapper7isEmptyEv@Base 6.4.0
 _ZNK24QQmlJSResourceFileMapper9filePathsERKNS_6FilterE@Base 6.4.0
 _ZNK25QQmlJSMetaPropertyBinding11literalTypeEPK18QQmlJSTypeResolver@Base 6.4.0
 _ZNK25QQmlJSMetaPropertyBinding11numberValueEv@Base 6.4.0
 _ZNK25QQmlJSMetaPropertyBinding11regExpValueEv@Base 6.4.0
 _ZNK25QQmlJSMetaPropertyBinding11stringValueEv@Base 6.4.0
 _ZNK25QQmlJSMetaPropertyBinding15literalTypeNameEv@Base 6.4.0
 _ZNK25QQmlJSMetaPropertyBinding7isValidEv@Base 6.4.0
 _ZNK25QQmlJSMetaPropertyBinding9boolValueEv@Base 6.4.0
 _ZNK6QQmlSA11PassManager17hasImportedModuleE14QAnyStringView@Base 6.4.0
 _ZTI17QQmlJSAotCompiler@Base 6.4.0
 _ZTI17QQmlJSBasicBlocks@Base 6.4.0
 _ZTI17QQmlJSShadowCheck@Base 6.4.0
 _ZTI19QQmlJSCodeGenerator@Base 6.4.0
 _ZTI19QQmlJSImportVisitor@Base 6.4.0
 _ZTI20QQmlJSTypePropagator@Base 6.4.0
 _ZTIN6QQmlJS3AST7VisitorE@Base 6.4.0
 _ZTIN6QQmlSA11ElementPassE@Base 6.4.0
 _ZTIN6QQmlSA11GenericPassE@Base 6.4.0
 _ZTIN6QQmlSA12PropertyPassE@Base 6.4.0
 _ZTIN6QQmlSA16DebugElementPassE@Base 6.4.0
 _ZTIN6QQmlSA17DebugPropertyPassE@Base 6.4.0
 _ZTS17QQmlJSAotCompiler@Base 6.4.0
 _ZTS17QQmlJSBasicBlocks@Base 6.4.0
 _ZTS17QQmlJSShadowCheck@Base 6.4.0
 _ZTS19QQmlJSCodeGenerator@Base 6.4.0
 _ZTS19QQmlJSImportVisitor@Base 6.4.0
 _ZTS20QQmlJSTypePropagator@Base 6.4.0
 _ZTS24QQmlJSStorageGeneralizer@Base 6.4.0
 _ZTSN5QmlIR9JSCodeGenE@Base 6.4.0
 _ZTSN6QQmlJS3AST7VisitorE@Base 6.4.0
 _ZTSN6QQmlSA11ElementPassE@Base 6.4.0
 _ZTSN6QQmlSA11GenericPassE@Base 6.4.0
 _ZTSN6QQmlSA12PropertyPassE@Base 6.4.0
 _ZTSN6QQmlSA16DebugElementPassE@Base 6.4.0
 _ZTSN6QQmlSA17DebugPropertyPassE@Base 6.4.0
 _ZTV17QQmlJSAotCompiler@Base 6.4.0
 _ZTV17QQmlJSBasicBlocks@Base 6.4.0
 _ZTV17QQmlJSShadowCheck@Base 6.4.0
 _ZTV19QQmlJSCodeGenerator@Base 6.4.0
 _ZTV19QQmlJSImportVisitor@Base 6.4.0
 _ZTV20QQmlJSTypePropagator@Base 6.4.0
 _ZTVN6QQmlSA11ElementPassE@Base 6.4.0
 _ZTVN6QQmlSA11GenericPassE@Base 6.4.0
 _ZTVN6QQmlSA12PropertyPassE@Base 6.4.0
 _ZTVN6QQmlSA16DebugElementPassE@Base 6.4.0
 _ZTVN6QQmlSA17DebugPropertyPassE@Base 6.4.0
