# SymbolsHelper-Confirmed: 6.6.0 amd64
libQt6QuickTemplates2.so.6 libqt6quicktemplates2-6 #MINVER#
| libqt6quicktemplates2-6 #MINVER#, qt6-declarative-private-abi (= 6.6.2)
* Build-Depends-Packages: qt6-declarative-dev, qt6-declarative-private-dev
 Qt_6@Qt_6 6.6.0
 (symver)Qt_6_PRIVATE_API 0
 _Z32QQuickTemplates_initializeModulev@Qt_6 6.6.0
 _Z36qml_register_types_QtQuick_Templatesv@Qt_6 6.6.0
 _ZGVZN9QMetaType21registerConverterImplI5QListIN2Qt3KeyEE9QIterableI13QMetaSequenceEEEbSt8functionIFbPKvPvEES_S_E10unregister@Qt_6 6.6.0
 _ZGVZN9QMetaType23registerMutableViewImplI5QListIN2Qt3KeyEE9QIterableI13QMetaSequenceEEEbSt8functionIFbPvS9_EES_S_E10unregister@Qt_6 6.6.0
 _ZN13QMetaSequence12MetaSequenceI5QListIN2Qt3KeyEEE5valueE@Qt_6 6.6.0
 _ZN14QtQuickPrivate14cancelDeferredEP7QObjectRK7QString@Qt_6 6.6.0
 _ZN22QQuickSplitViewPrivate10handleMoveERK7QPointFm@Qt_6 6.6.0
 _ZN22QQuickSplitViewPrivate11handlePressERK7QPointFm@Qt_6 6.6.0
 _ZN22QQuickSplitViewPrivate11setResizingEb@Qt_6 6.6.0
 _ZN22QQuickSplitViewPrivate12resizeHandleEP10QQuickItem@Qt_6 6.6.0
 _ZN22QQuickSplitViewPrivate12updatePolishEv@Qt_6 6.6.0
 _ZN22QQuickSplitViewPrivate13createHandlesEv@Qt_6 6.6.0
 _ZN22QQuickSplitViewPrivate13handleReleaseERK7QPointFm@Qt_6 6.6.0
 _ZN22QQuickSplitViewPrivate13requestLayoutEv@Qt_6 6.6.0
 _ZN22QQuickSplitViewPrivate13resizeHandlesEv@Qt_6 6.6.0
 _ZN22QQuickSplitViewPrivate14destroyHandlesEv@Qt_6 6.6.0
 _ZN22QQuickSplitViewPrivate14getContentItemEv@Qt_6 6.6.0
 _ZN22QQuickSplitViewPrivate15updateFillIndexEv@Qt_6 6.6.0
 _ZN22QQuickSplitViewPrivate16createHandleItemEi@Qt_6 6.6.0
 _ZN22QQuickSplitViewPrivate18limitAndApplySizesEdd@Qt_6 6.6.0
 _ZN22QQuickSplitViewPrivate18updateCursorHandleEP10QQuickItem@Qt_6 6.6.0
 _ZN22QQuickSplitViewPrivate19layoutPositionItemsEPK10QQuickItem@Qt_6 6.6.0
 _ZN22QQuickSplitViewPrivate19removeExcessHandlesEv@Qt_6 6.6.0
 _ZN22QQuickSplitViewPrivate19updateHoveredHandleEP10QQuickItem@Qt_6 6.6.0
 _ZN22QQuickSplitViewPrivate20layoutResizeFillItemEP10QQuickItemRdS2_i@Qt_6 6.6.0
 _ZN22QQuickSplitViewPrivate21itemVisibilityChangedEP10QQuickItem@Qt_6 6.6.0
 _ZN22QQuickSplitViewPrivate22layoutResizeSplitItemsERdS0_Ri@Qt_6 6.6.0
 _ZN22QQuickSplitViewPrivate24itemImplicitWidthChangedEP10QQuickItem@Qt_6 6.6.0
 _ZN22QQuickSplitViewPrivate24updateHandleVisibilitiesEv@Qt_6 6.6.0
 _ZN22QQuickSplitViewPrivate25itemImplicitHeightChangedEP10QQuickItem@Qt_6 6.6.0
 _ZN22QQuickSplitViewPrivate6layoutEv@Qt_6 6.6.0
 _ZN30QQuickApplicationWindowPrivate10updateFontERK5QFont@Qt_6 6.6.0
 _ZN30QQuickApplicationWindowPrivate11contentDataEv@Qt_6 6.6.0
 _ZN30QQuickApplicationWindowPrivate11resolveFontEv@Qt_6 6.6.0
 _ZN30QQuickApplicationWindowPrivate16cancelBackgroundEv@Qt_6 6.6.0
 _ZN30QQuickApplicationWindowPrivate17executeBackgroundEb@Qt_6 6.6.0
 _ZN30QQuickApplicationWindowPrivate18contentData_appendEP16QQmlListPropertyI7QObjectEPS1_@Qt_6 6.6.0
 _ZN30QQuickApplicationWindowPrivate19itemGeometryChangedEP10QQuickItem20QQuickGeometryChangeRK6QRectF@Qt_6 6.6.0
 _ZN30QQuickApplicationWindowPrivate20_q_updateActiveFocusEv@Qt_6 6.6.0
 _ZN30QQuickApplicationWindowPrivate21itemVisibilityChangedEP10QQuickItem@Qt_6 6.6.0
 _ZN30QQuickApplicationWindowPrivate21setActiveFocusControlEP10QQuickItem@Qt_6 6.6.0
 _ZN30QQuickApplicationWindowPrivate24itemImplicitWidthChangedEP10QQuickItem@Qt_6 6.6.0
 _ZN30QQuickApplicationWindowPrivate25itemImplicitHeightChangedEP10QQuickItem@Qt_6 6.6.0
 _ZN30QQuickApplicationWindowPrivate8relayoutEv@Qt_6 6.6.0
 _ZNK22QQuickSplitViewPrivate12isHorizontalEv@Qt_6 6.6.0
 _ZNK22QQuickSplitViewPrivate15accumulatedSizeEii@Qt_6 6.6.0
 _ZNK22QQuickSplitViewPrivate24handleIndexForSplitIndexEi@Qt_6 6.6.0
 _ZTI16QQuickSelectable@Qt_6 6.6.0
 _ZTI22QQuickSplitViewPrivate@Qt_6 6.6.0
 _ZTI26QQuickWindowQmlImplPrivate@Qt_6 6.6.0
 _ZTI30QQuickApplicationWindowPrivate@Qt_6 6.6.0
 _ZTI38QQuickItemViewTransitionChangeListener@Qt_6 6.6.0
 _ZTIZN9QMetaType17registerConverterI5QListIN2Qt3KeyEE9QIterableI13QMetaSequenceEN9QtPrivate33QSequentialIterableConvertFunctorIS4_EEEEbT1_EUlPKvPvE_@Qt_6 6.6.0
 _ZTIZN9QMetaType19registerMutableViewI5QListIN2Qt3KeyEE9QIterableI13QMetaSequenceEN9QtPrivate37QSequentialIterableMutableViewFunctorIS4_EEEEbT1_EUlPvSC_E_@Qt_6 6.6.0
 _ZTS16QQuickSelectable@Qt_6 6.6.0
 _ZTS17QQuickToolPrivate@Qt_6 6.6.0
 _ZTS22QQuickSplitViewPrivate@Qt_6 6.6.0
 _ZTS22QQuickTabButtonPrivate@Qt_6 6.6.0
 _ZTS24QQuickRadioButtonPrivate@Qt_6 6.6.0
 _ZTS26QQuickMenuSeparatorPrivate@Qt_6 6.6.0
 _ZTS26QQuickRadioDelegatePrivate@Qt_6 6.6.0
 _ZTS26QQuickWindowQmlImplPrivate@Qt_6 6.6.0
 _ZTS29QQuickImplicitSizeItemPrivate@Qt_6 6.6.0
 _ZTS30QQuickApplicationWindowPrivate@Qt_6 6.6.0
 _ZTS38QQuickItemViewTransitionChangeListener@Qt_6 6.6.0
 _ZTSZN9QMetaType17registerConverterI5QListIN2Qt3KeyEE9QIterableI13QMetaSequenceEN9QtPrivate33QSequentialIterableConvertFunctorIS4_EEEEbT1_EUlPKvPvE_@Qt_6 6.6.0
 _ZTSZN9QMetaType19registerMutableViewI5QListIN2Qt3KeyEE9QIterableI13QMetaSequenceEN9QtPrivate37QSequentialIterableMutableViewFunctorIS4_EEEEbT1_EUlPvSC_E_@Qt_6 6.6.0
 _ZTV22QQuickSplitViewPrivate@Qt_6 6.6.0
 _ZTV30QQuickApplicationWindowPrivate@Qt_6 6.6.0
 (optional=templinst)_ZZN9QMetaType21registerConverterImplI5QListIN2Qt3KeyEE9QIterableI13QMetaSequenceEEEbSt8functionIFbPKvPvEES_S_E10unregister@Qt_6 6.6.0
 (optional=templinst)_ZZN9QMetaType23registerMutableViewImplI5QListIN2Qt3KeyEE9QIterableI13QMetaSequenceEEEbSt8functionIFbPvS9_EES_S_E10unregister@Qt_6 6.6.0
 (c++)"non-virtual thunk to QQuickApplicationWindowPrivate::itemGeometryChanged(QQuickItem*, QQuickGeometryChange, QRectF const&)@Qt_6" 6.6.0
 (c++)"non-virtual thunk to QQuickApplicationWindowPrivate::itemImplicitHeightChanged(QQuickItem*)@Qt_6" 6.6.0
 (c++)"non-virtual thunk to QQuickApplicationWindowPrivate::itemImplicitWidthChanged(QQuickItem*)@Qt_6" 6.6.0
 (c++)"non-virtual thunk to QQuickApplicationWindowPrivate::itemVisibilityChanged(QQuickItem*)@Qt_6" 6.6.0
 (c++)"non-virtual thunk to QQuickSplitViewPrivate::itemImplicitHeightChanged(QQuickItem*)@Qt_6" 6.6.0
 (c++)"non-virtual thunk to QQuickSplitViewPrivate::itemImplicitWidthChanged(QQuickItem*)@Qt_6" 6.6.0
 (c++)"non-virtual thunk to QQuickSplitViewPrivate::itemVisibilityChanged(QQuickItem*)@Qt_6" 6.6.0
