# SymbolsHelper-Confirmed: 6.6.0 amd64 armel armhf hppa i386 powerpc riscv64
libQt6Qml.so.6 libqt6qml6 #MINVER#
| libqt6qml6 #MINVER#, qt6-declarative-private-abi (= 6.6.0)
* Build-Depends-Packages: qt6-declarative-dev, qt6-declarative-private-dev
 Qt_6@Qt_6 6.6.0
 (symver)Qt_6_PRIVATE_API 0
 _Z10qmlContextPK7QObject@Qt_6 6.6.0
 _Z10qmlWarningPK7QObject@Qt_6 6.6.0
 _Z10qmlWarningPK7QObjectRK5QListI9QQmlErrorE@Qt_6 6.6.0
 _Z10qmlWarningPK7QObjectRK9QQmlError@Qt_6 6.6.0
 _Z16qmlProtectModulePKci@Qt_6 6.6.0
 _Z17qmlExtendedObjectP7QObject@Qt_6 6.6.0
 _Z17qmlRegisterModulePKcii@Qt_6 6.6.0
 _Z18QQml_colorProviderv@Qt_6 6.6.0
 _Z18qmlExecuteDeferredP7QObject@Qt_6 6.6.0
 _Z18qmlobject_can_castP7QObjectPK11QMetaObject@Qt_6 6.6.0
 _Z22qQmlResolveImportPaths11QStringViewRK5QListI7QStringE13QTypeRevision@Qt_6 6.6.0
 _Z23qmlRegisterModuleImportPKciS0_ii@Qt_6 6.6.0
 _Z24qml_register_types_QtQmlv@Qt_6 6.6.0
 _Z25qmlClearTypeRegistrationsv@Qt_6 6.6.0
 _Z25qmlUnregisterModuleImportPKciS0_ii@Qt_6 6.6.0
 _Z27qmlAttachedPropertiesObjectP7QObjectPFS0_S0_Eb@Qt_6 6.6.0
 _Z27qmlRegisterTypeNotAvailablePKciiS0_RK7QString@Qt_6 6.6.0
 _Z29qmlAttachedPropertiesFunctionP7QObjectPK11QMetaObject@Qt_6 6.6.0
 _Z29qml_register_types_QtQml_Basev@Qt_6 6.6.0
 _Z32qmlRegisterUncreatableMetaObjectRK11QMetaObjectPKciiS3_RK7QString@Qt_6 6.6.0
 _Z7qmlInfoPK7QObject@Qt_6 6.6.0
 _Z7qmlInfoPK7QObjectRK5QListI9QQmlErrorE@Qt_6 6.6.0
 _Z7qmlInfoPK7QObjectRK9QQmlError@Qt_6 6.6.0
 _Z8qmlDebugPK7QObject@Qt_6 6.6.0
 _Z8qmlDebugPK7QObjectRK5QListI9QQmlErrorE@Qt_6 6.6.0
 _Z8qmlDebugPK7QObjectRK9QQmlError@Qt_6 6.6.0
 _Z9qjsEnginePK7QObject@Qt_6 6.6.0
 _Z9qmlEnginePK7QObject@Qt_6 6.6.0
 _Z9qmlTypeIdPKciiS0_@Qt_6 6.6.0
 _ZGVZN9QMetaType21registerConverterImplI5QListI12QEasingCurveE9QIterableI13QMetaSequenceEEEbSt8functionIFbPKvPvEES_S_E10unregister@Qt_6 6.6.0
 _ZGVZN9QMetaType21registerConverterImplI5QListI12QQmlPropertyE9QIterableI13QMetaSequenceEEEbSt8functionIFbPKvPvEES_S_E10unregister@Qt_6 6.6.0
 _ZGVZN9QMetaType21registerConverterImplI5QListI16QQmlScriptStringE9QIterableI13QMetaSequenceEEEbSt8functionIFbPKvPvEES_S_E10unregister@Qt_6 6.6.0
 _ZGVZN9QMetaType21registerConverterImplI5QListI18QRegularExpressionE9QIterableI13QMetaSequenceEEEbSt8functionIFbPKvPvEES_S_E10unregister@Qt_6 6.6.0
 _ZGVZN9QMetaType21registerConverterImplI5QListI4QMapI7QString8QVariantEE9QIterableI13QMetaSequenceEEEbSt8functionIFbPKvPvEES_S_E10unregister@Qt_6 6.6.0
 _ZGVZN9QMetaType21registerConverterImplI5QListI4QUrlE9QIterableI13QMetaSequenceEEEbSt8functionIFbPKvPvEES_S_E10unregister@Qt_6 6.6.0
 _ZGVZN9QMetaType21registerConverterImplI5QListI5QCharE9QIterableI13QMetaSequenceEEEbSt8functionIFbPKvPvEES_S_E10unregister@Qt_6 6.6.0
 _ZGVZN9QMetaType21registerConverterImplI5QListI5QDateE9QIterableI13QMetaSequenceEEEbSt8functionIFbPKvPvEES_S_E10unregister@Qt_6 6.6.0
 _ZGVZN9QMetaType21registerConverterImplI5QListI5QRectE9QIterableI13QMetaSequenceEEEbSt8functionIFbPKvPvEES_S_E10unregister@Qt_6 6.6.0
 _ZGVZN9QMetaType21registerConverterImplI5QListI5QSizeE9QIterableI13QMetaSequenceEEEbSt8functionIFbPKvPvEES_S_E10unregister@Qt_6 6.6.0
 _ZGVZN9QMetaType21registerConverterImplI5QListI5QTimeE9QIterableI13QMetaSequenceEEEbSt8functionIFbPKvPvEES_S_E10unregister@Qt_6 6.6.0
 _ZGVZN9QMetaType21registerConverterImplI5QListI6QPointE9QIterableI13QMetaSequenceEEEbSt8functionIFbPKvPvEES_S_E10unregister@Qt_6 6.6.0
 _ZGVZN9QMetaType21registerConverterImplI5QListI6QRectFE9QIterableI13QMetaSequenceEEEbSt8functionIFbPKvPvEES_S_E10unregister@Qt_6 6.6.0
 _ZGVZN9QMetaType21registerConverterImplI5QListI6QSizeFE9QIterableI13QMetaSequenceEEEbSt8functionIFbPKvPvEES_S_E10unregister@Qt_6 6.6.0
 _ZGVZN9QMetaType21registerConverterImplI5QListI7QPointFE9QIterableI13QMetaSequenceEEEbSt8functionIFbPKvPvEES_S_E10unregister@Qt_6 6.6.0
 _ZGVZN9QMetaType21registerConverterImplI5QListI8QJSValueE9QIterableI13QMetaSequenceEEEbSt8functionIFbPKvPvEES_S_E10unregister@Qt_6 6.6.0
 _ZGVZN9QMetaType21registerConverterImplI5QListI9QDateTimeE9QIterableI13QMetaSequenceEEEbSt8functionIFbPKvPvEES_S_E10unregister@Qt_6 6.6.0
 _ZGVZN9QMetaType21registerConverterImplI5QListIDnE9QIterableI13QMetaSequenceEEEbSt8functionIFbPKvPvEES_S_E10unregister@Qt_6 6.6.0
 _ZGVZN9QMetaType21registerConverterImplI5QListIP7QObjectE9QIterableI13QMetaSequenceEEEbSt8functionIFbPKvPvEES_S_E10unregister@Qt_6 6.6.0
 _ZGVZN9QMetaType21registerConverterImplI5QListIaE9QIterableI13QMetaSequenceEEEbSt8functionIFbPKvPvEES_S_E10unregister@Qt_6 6.6.0
 _ZGVZN9QMetaType21registerConverterImplI5QListIbE9QIterableI13QMetaSequenceEEEbSt8functionIFbPKvPvEES_S_E10unregister@Qt_6 6.6.0
 _ZGVZN9QMetaType21registerConverterImplI5QListIdE9QIterableI13QMetaSequenceEEEbSt8functionIFbPKvPvEES_S_E10unregister@Qt_6 6.6.0
 _ZGVZN9QMetaType21registerConverterImplI5QListIfE9QIterableI13QMetaSequenceEEEbSt8functionIFbPKvPvEES_S_E10unregister@Qt_6 6.6.0
 _ZGVZN9QMetaType21registerConverterImplI5QListIhE9QIterableI13QMetaSequenceEEEbSt8functionIFbPKvPvEES_S_E10unregister@Qt_6 6.6.0
 _ZGVZN9QMetaType21registerConverterImplI5QListIiE9QIterableI13QMetaSequenceEEEbSt8functionIFbPKvPvEES_S_E10unregister@Qt_6 6.6.0
 _ZGVZN9QMetaType21registerConverterImplI5QListIjE9QIterableI13QMetaSequenceEEEbSt8functionIFbPKvPvEES_S_E10unregister@Qt_6 6.6.0
 _ZGVZN9QMetaType21registerConverterImplI5QListIsE9QIterableI13QMetaSequenceEEEbSt8functionIFbPKvPvEES_S_E10unregister@Qt_6 6.6.0
 _ZGVZN9QMetaType21registerConverterImplI5QListItE9QIterableI13QMetaSequenceEEEbSt8functionIFbPKvPvEES_S_E10unregister@Qt_6 6.6.0
 _ZGVZN9QMetaType21registerConverterImplI5QListIxE9QIterableI13QMetaSequenceEEEbSt8functionIFbPKvPvEES_S_E10unregister@Qt_6 6.6.0
 _ZGVZN9QMetaType21registerConverterImplI5QListIyE9QIterableI13QMetaSequenceEEEbSt8functionIFbPKvPvEES_S_E10unregister@Qt_6 6.6.0
 _ZGVZN9QMetaType21registerConverterImplI8QJSValue19QSequentialIterableEEbSt8functionIFbPKvPvEES_S_E10unregister@Qt_6 6.6.0
 _ZGVZN9QMetaType21registerConverterImplI8QJSValue4QMapI7QString8QVariantEEEbSt8functionIFbPKvPvEES_S_E10unregister@Qt_6 6.6.0
 _ZGVZN9QMetaType21registerConverterImplI8QJSValue5QListI7QStringEEEbSt8functionIFbPKvPvEES_S_E10unregister@Qt_6 6.6.0
 _ZGVZN9QMetaType21registerConverterImplI8QJSValue5QListI8QVariantEEEbSt8functionIFbPKvPvEES_S_E10unregister@Qt_6 6.6.0
 _ZGVZN9QMetaType21registerConverterImplISt6vectorI11QModelIndexSaIS2_EE9QIterableI13QMetaSequenceEEEbSt8functionIFbPKvPvEES_S_E10unregister@Qt_6 6.6.0
 _ZGVZN9QMetaType21registerConverterImplISt6vectorI4QUrlSaIS2_EE9QIterableI13QMetaSequenceEEEbSt8functionIFbPKvPvEES_S_E10unregister@Qt_6 6.6.0
 _ZGVZN9QMetaType21registerConverterImplISt6vectorI7QStringSaIS2_EE9QIterableI13QMetaSequenceEEEbSt8functionIFbPKvPvEES_S_E10unregister@Qt_6 6.6.0
 _ZGVZN9QMetaType21registerConverterImplISt6vectorIbSaIbEE9QIterableI13QMetaSequenceEEEbSt8functionIFbPKvPvEES_S_E10unregister@Qt_6 6.6.0
 _ZGVZN9QMetaType21registerConverterImplISt6vectorIdSaIdEE9QIterableI13QMetaSequenceEEEbSt8functionIFbPKvPvEES_S_E10unregister@Qt_6 6.6.0
 _ZGVZN9QMetaType21registerConverterImplISt6vectorIfSaIfEE9QIterableI13QMetaSequenceEEEbSt8functionIFbPKvPvEES_S_E10unregister@Qt_6 6.6.0
 _ZGVZN9QMetaType21registerConverterImplISt6vectorIiSaIiEE9QIterableI13QMetaSequenceEEEbSt8functionIFbPKvPvEES_S_E10unregister@Qt_6 6.6.0
 _ZGVZN9QMetaType23registerMutableViewImplI5QListI12QEasingCurveE9QIterableI13QMetaSequenceEEEbSt8functionIFbPvS8_EES_S_E10unregister@Qt_6 6.6.0
 _ZGVZN9QMetaType23registerMutableViewImplI5QListI12QQmlPropertyE9QIterableI13QMetaSequenceEEEbSt8functionIFbPvS8_EES_S_E10unregister@Qt_6 6.6.0
 _ZGVZN9QMetaType23registerMutableViewImplI5QListI16QQmlScriptStringE9QIterableI13QMetaSequenceEEEbSt8functionIFbPvS8_EES_S_E10unregister@Qt_6 6.6.0
 _ZGVZN9QMetaType23registerMutableViewImplI5QListI18QRegularExpressionE9QIterableI13QMetaSequenceEEEbSt8functionIFbPvS8_EES_S_E10unregister@Qt_6 6.6.0
 _ZGVZN9QMetaType23registerMutableViewImplI5QListI4QMapI7QString8QVariantEE9QIterableI13QMetaSequenceEEEbSt8functionIFbPvSB_EES_S_E10unregister@Qt_6 6.6.0
 _ZGVZN9QMetaType23registerMutableViewImplI5QListI4QUrlE9QIterableI13QMetaSequenceEEEbSt8functionIFbPvS8_EES_S_E10unregister@Qt_6 6.6.0
 _ZGVZN9QMetaType23registerMutableViewImplI5QListI5QCharE9QIterableI13QMetaSequenceEEEbSt8functionIFbPvS8_EES_S_E10unregister@Qt_6 6.6.0
 _ZGVZN9QMetaType23registerMutableViewImplI5QListI5QDateE9QIterableI13QMetaSequenceEEEbSt8functionIFbPvS8_EES_S_E10unregister@Qt_6 6.6.0
 _ZGVZN9QMetaType23registerMutableViewImplI5QListI5QRectE9QIterableI13QMetaSequenceEEEbSt8functionIFbPvS8_EES_S_E10unregister@Qt_6 6.6.0
 _ZGVZN9QMetaType23registerMutableViewImplI5QListI5QSizeE9QIterableI13QMetaSequenceEEEbSt8functionIFbPvS8_EES_S_E10unregister@Qt_6 6.6.0
 _ZGVZN9QMetaType23registerMutableViewImplI5QListI5QTimeE9QIterableI13QMetaSequenceEEEbSt8functionIFbPvS8_EES_S_E10unregister@Qt_6 6.6.0
 _ZGVZN9QMetaType23registerMutableViewImplI5QListI6QPointE9QIterableI13QMetaSequenceEEEbSt8functionIFbPvS8_EES_S_E10unregister@Qt_6 6.6.0
 _ZGVZN9QMetaType23registerMutableViewImplI5QListI6QRectFE9QIterableI13QMetaSequenceEEEbSt8functionIFbPvS8_EES_S_E10unregister@Qt_6 6.6.0
 _ZGVZN9QMetaType23registerMutableViewImplI5QListI6QSizeFE9QIterableI13QMetaSequenceEEEbSt8functionIFbPvS8_EES_S_E10unregister@Qt_6 6.6.0
 _ZGVZN9QMetaType23registerMutableViewImplI5QListI7QPointFE9QIterableI13QMetaSequenceEEEbSt8functionIFbPvS8_EES_S_E10unregister@Qt_6 6.6.0
 _ZGVZN9QMetaType23registerMutableViewImplI5QListI8QJSValueE9QIterableI13QMetaSequenceEEEbSt8functionIFbPvS8_EES_S_E10unregister@Qt_6 6.6.0
 _ZGVZN9QMetaType23registerMutableViewImplI5QListI9QDateTimeE9QIterableI13QMetaSequenceEEEbSt8functionIFbPvS8_EES_S_E10unregister@Qt_6 6.6.0
 _ZGVZN9QMetaType23registerMutableViewImplI5QListIDnE9QIterableI13QMetaSequenceEEEbSt8functionIFbPvS7_EES_S_E10unregister@Qt_6 6.6.0
 _ZGVZN9QMetaType23registerMutableViewImplI5QListIP7QObjectE9QIterableI13QMetaSequenceEEEbSt8functionIFbPvS9_EES_S_E10unregister@Qt_6 6.6.0
 _ZGVZN9QMetaType23registerMutableViewImplI5QListIaE9QIterableI13QMetaSequenceEEEbSt8functionIFbPvS7_EES_S_E10unregister@Qt_6 6.6.0
 _ZGVZN9QMetaType23registerMutableViewImplI5QListIbE9QIterableI13QMetaSequenceEEEbSt8functionIFbPvS7_EES_S_E10unregister@Qt_6 6.6.0
 _ZGVZN9QMetaType23registerMutableViewImplI5QListIdE9QIterableI13QMetaSequenceEEEbSt8functionIFbPvS7_EES_S_E10unregister@Qt_6 6.6.0
 _ZGVZN9QMetaType23registerMutableViewImplI5QListIfE9QIterableI13QMetaSequenceEEEbSt8functionIFbPvS7_EES_S_E10unregister@Qt_6 6.6.0
 _ZGVZN9QMetaType23registerMutableViewImplI5QListIhE9QIterableI13QMetaSequenceEEEbSt8functionIFbPvS7_EES_S_E10unregister@Qt_6 6.6.0
 _ZGVZN9QMetaType23registerMutableViewImplI5QListIiE9QIterableI13QMetaSequenceEEEbSt8functionIFbPvS7_EES_S_E10unregister@Qt_6 6.6.0
 _ZGVZN9QMetaType23registerMutableViewImplI5QListIjE9QIterableI13QMetaSequenceEEEbSt8functionIFbPvS7_EES_S_E10unregister@Qt_6 6.6.0
 _ZGVZN9QMetaType23registerMutableViewImplI5QListIsE9QIterableI13QMetaSequenceEEEbSt8functionIFbPvS7_EES_S_E10unregister@Qt_6 6.6.0
 _ZGVZN9QMetaType23registerMutableViewImplI5QListItE9QIterableI13QMetaSequenceEEEbSt8functionIFbPvS7_EES_S_E10unregister@Qt_6 6.6.0
 _ZGVZN9QMetaType23registerMutableViewImplI5QListIxE9QIterableI13QMetaSequenceEEEbSt8functionIFbPvS7_EES_S_E10unregister@Qt_6 6.6.0
 _ZGVZN9QMetaType23registerMutableViewImplI5QListIyE9QIterableI13QMetaSequenceEEEbSt8functionIFbPvS7_EES_S_E10unregister@Qt_6 6.6.0
 _ZGVZN9QMetaType23registerMutableViewImplISt6vectorI11QModelIndexSaIS2_EE9QIterableI13QMetaSequenceEEEbSt8functionIFbPvS9_EES_S_E10unregister@Qt_6 6.6.0
 _ZGVZN9QMetaType23registerMutableViewImplISt6vectorI4QUrlSaIS2_EE9QIterableI13QMetaSequenceEEEbSt8functionIFbPvS9_EES_S_E10unregister@Qt_6 6.6.0
 _ZGVZN9QMetaType23registerMutableViewImplISt6vectorI7QStringSaIS2_EE9QIterableI13QMetaSequenceEEEbSt8functionIFbPvS9_EES_S_E10unregister@Qt_6 6.6.0
 _ZGVZN9QMetaType23registerMutableViewImplISt6vectorIbSaIbEE9QIterableI13QMetaSequenceEEEbSt8functionIFbPvS8_EES_S_E10unregister@Qt_6 6.6.0
 _ZGVZN9QMetaType23registerMutableViewImplISt6vectorIdSaIdEE9QIterableI13QMetaSequenceEEEbSt8functionIFbPvS8_EES_S_E10unregister@Qt_6 6.6.0
 _ZGVZN9QMetaType23registerMutableViewImplISt6vectorIfSaIfEE9QIterableI13QMetaSequenceEEEbSt8functionIFbPvS8_EES_S_E10unregister@Qt_6 6.6.0
 _ZGVZN9QMetaType23registerMutableViewImplISt6vectorIiSaIiEE9QIterableI13QMetaSequenceEEEbSt8functionIFbPvS8_EES_S_E10unregister@Qt_6 6.6.0
 _ZN10QQmlEngine10setBaseUrlERK4QUrl@Qt_6 6.6.0
 _ZN10QQmlEngine11qt_metacallEN11QMetaObject4CallEiPPv@Qt_6 6.6.0
 _ZN10QQmlEngine11qt_metacastEPKc@Qt_6 6.6.0
 _ZN10QQmlEngine11retranslateEv@Qt_6 6.6.0
 _ZN10QQmlEngine12importPluginERK7QStringS2_P5QListI9QQmlErrorE@Qt_6 6.6.0
 _ZN10QQmlEngine13addImportPathERK7QString@Qt_6 6.6.0
 _ZN10QQmlEngine13addPluginPathERK7QString@Qt_6 6.6.0
 _ZN10QQmlEngine15clearSingletonsEv@Qt_6 6.6.0
 _ZN10QQmlEngine16addImageProviderERK7QStringP21QQmlImageProviderBase@Qt_6 6.6.0
 _ZN10QQmlEngine16contextForObjectEPK7QObject@Qt_6 6.6.0
 _ZN10QQmlEngine16staticMetaObjectE@Qt_6 6.6.0
 _ZN10QQmlEngine17addUrlInterceptorEP26QQmlAbstractUrlInterceptor@Qt_6 6.6.0
 _ZN10QQmlEngine17setImportPathListERK5QListI7QStringE@Qt_6 6.6.0
 _ZN10QQmlEngine17setPluginPathListERK5QListI7QStringE@Qt_6 6.6.0
 (optional=templinst)_ZN10QQmlEngine17singletonInstanceI8QJSValueEET_14QAnyStringViewS3_@Qt_6 6.6.0
 (optional=templinst)_ZN10QQmlEngine17singletonInstanceI8QJSValueEET_i@Qt_6 6.6.0
 _ZN10QQmlEngine18trimComponentCacheEv@Qt_6 6.6.0
 _ZN10QQmlEngine19clearComponentCacheEv@Qt_6 6.6.0
 _ZN10QQmlEngine19removeImageProviderERK7QString@Qt_6 6.6.0
 _ZN10QQmlEngine19setContextForObjectEP7QObjectP11QQmlContext@Qt_6 6.6.0
 _ZN10QQmlEngine20removeUrlInterceptorEP26QQmlAbstractUrlInterceptor@Qt_6 6.6.0
 _ZN10QQmlEngine21setOfflineStoragePathERK7QString@Qt_6 6.6.0
 _ZN10QQmlEngine23setIncubationControllerEP24QQmlIncubationController@Qt_6 6.6.0
 _ZN10QQmlEngine25offlineStoragePathChangedEv@Qt_6 6.6.0
 _ZN10QQmlEngine30setNetworkAccessManagerFactoryEP31QQmlNetworkAccessManagerFactory@Qt_6 6.6.0
 _ZN10QQmlEngine32setOutputWarningsToStandardErrorEb@Qt_6 6.6.0
 _ZN10QQmlEngine39markCurrentFunctionAsTranslationBindingEv@Qt_6 6.6.0
 _ZN10QQmlEngine4exitEi@Qt_6 6.6.0
 _ZN10QQmlEngine4quitEv@Qt_6 6.6.0
 _ZN10QQmlEngine5eventEP6QEvent@Qt_6 6.6.0
 _ZN10QQmlEngine8warningsERK5QListI9QQmlErrorE@Qt_6 6.6.0
 _ZN10QQmlEngineC1EP7QObject@Qt_6 6.6.0
 _ZN10QQmlEngineC2EP7QObject@Qt_6 6.6.0
 _ZN10QQmlEngineD0Ev@Qt_6 6.6.0
 _ZN10QQmlEngineD1Ev@Qt_6 6.6.0
 _ZN10QQmlEngineD2Ev@Qt_6 6.6.0
 _ZN10QQmlLocale16staticMetaObjectE@Qt_6 6.6.0
 _ZN11QQmlContext10setBaseUrlERK4QUrl@Qt_6 6.6.0
 _ZN11QQmlContext11qt_metacallEN11QMetaObject4CallEiPPv@Qt_6 6.6.0
 _ZN11QQmlContext11qt_metacastEPKc@Qt_6 6.6.0
 _ZN11QQmlContext16setContextObjectEP7QObject@Qt_6 6.6.0
 _ZN11QQmlContext16staticMetaObjectE@Qt_6 6.6.0
 _ZN11QQmlContext18setContextPropertyERK7QStringP7QObject@Qt_6 6.6.0
 _ZN11QQmlContext18setContextPropertyERK7QStringRK8QVariant@Qt_6 6.6.0
 _ZN11QQmlContext20setContextPropertiesERK5QListINS_12PropertyPairEE@Qt_6 6.6.0
 _ZN11QQmlContextC1EP10QQmlEngineP7QObject@Qt_6 6.6.0
 _ZN11QQmlContextC1EP10QQmlEngineb@Qt_6 6.6.0
 _ZN11QQmlContextC1EPS_P7QObject@Qt_6 6.6.0
 _ZN11QQmlContextC2EP10QQmlEngineP7QObject@Qt_6 6.6.0
 _ZN11QQmlContextC2EP10QQmlEngineb@Qt_6 6.6.0
 _ZN11QQmlContextC2EPS_P7QObject@Qt_6 6.6.0
 _ZN11QQmlContextD0Ev@Qt_6 6.6.0
 _ZN11QQmlContextD1Ev@Qt_6 6.6.0
 _ZN11QQmlContextD2Ev@Qt_6 6.6.0
 _ZN11QQmlPrivate11qmlregisterENS_16RegistrationTypeEPv@Qt_6 6.6.0
 (subst)_ZN11QQmlPrivate13qmlunregisterENS_16RegistrationTypeE{quintptr}@Qt_6 6.6.0
 _ZN11QQmlPrivate16SingletonFunctorclEP10QQmlEngineP9QJSEngine@Qt_6 6.6.0
 _ZN11QQmlPrivate17qmlExtendedObjectEP7QObjecti@Qt_6 6.6.0
 _ZN11QQmlPrivate18revisionClassInfosEPK11QMetaObjectPKc@Qt_6 6.6.0
 _ZN11QQmlPrivate22qmlRegistrationWarningENS_22QmlRegistrationWarningE9QMetaType@Qt_6 6.6.0
 _ZN11QQmlPrivate24SingletonInstanceFunctorclEP10QQmlEngineP9QJSEngine@Qt_6 6.6.0
 (optional=templinst)_ZN11QQmlPrivate27qmlRegisterTypeAndRevisionsI20QQmlTypeNotAvailablevEEvPKciPK11QMetaObjectP5QListIiES6_b@Qt_6 6.6.0
 _ZN11QQmlPrivate30qdeclarativeelement_destructorEP7QObject@Qt_6 6.6.0
 _ZN12QQmlProperty16staticMetaObjectE@Qt_6 6.6.0
 _ZN12QQmlProperty4readEPK7QObjectRK7QString@Qt_6 6.6.0
 _ZN12QQmlProperty4readEPK7QObjectRK7QStringP10QQmlEngine@Qt_6 6.6.0
 _ZN12QQmlProperty4readEPK7QObjectRK7QStringP11QQmlContext@Qt_6 6.6.0
 _ZN12QQmlProperty5writeEP7QObjectRK7QStringRK8QVariant@Qt_6 6.6.0
 _ZN12QQmlProperty5writeEP7QObjectRK7QStringRK8QVariantP10QQmlEngine@Qt_6 6.6.0
 _ZN12QQmlProperty5writeEP7QObjectRK7QStringRK8QVariantP11QQmlContext@Qt_6 6.6.0
 _ZN12QQmlPropertyC1EP7QObject@Qt_6 6.6.0
 _ZN12QQmlPropertyC1EP7QObjectP10QQmlEngine@Qt_6 6.6.0
 _ZN12QQmlPropertyC1EP7QObjectP11QQmlContext@Qt_6 6.6.0
 _ZN12QQmlPropertyC1EP7QObjectRK7QString@Qt_6 6.6.0
 _ZN12QQmlPropertyC1EP7QObjectRK7QStringP10QQmlEngine@Qt_6 6.6.0
 _ZN12QQmlPropertyC1EP7QObjectRK7QStringP11QQmlContext@Qt_6 6.6.0
 _ZN12QQmlPropertyC1ERKS_@Qt_6 6.6.0
 _ZN12QQmlPropertyC1Ev@Qt_6 6.6.0
 _ZN12QQmlPropertyC2EP7QObject@Qt_6 6.6.0
 _ZN12QQmlPropertyC2EP7QObjectP10QQmlEngine@Qt_6 6.6.0
 _ZN12QQmlPropertyC2EP7QObjectP11QQmlContext@Qt_6 6.6.0
 _ZN12QQmlPropertyC2EP7QObjectRK7QString@Qt_6 6.6.0
 _ZN12QQmlPropertyC2EP7QObjectRK7QStringP10QQmlEngine@Qt_6 6.6.0
 _ZN12QQmlPropertyC2EP7QObjectRK7QStringP11QQmlContext@Qt_6 6.6.0
 _ZN12QQmlPropertyC2ERKS_@Qt_6 6.6.0
 _ZN12QQmlPropertyC2Ev@Qt_6 6.6.0
 _ZN12QQmlPropertyD1Ev@Qt_6 6.6.0
 _ZN12QQmlPropertyD2Ev@Qt_6 6.6.0
 _ZN12QQmlPropertyaSERKS_@Qt_6 6.6.0
 _ZN13QMetaSequence12MetaSequenceI5QListI10QByteArrayEE5valueE@Qt_6 6.6.0
 _ZN13QMetaSequence12MetaSequenceI5QListI12QEasingCurveEE5valueE@Qt_6 6.6.0
 _ZN13QMetaSequence12MetaSequenceI5QListI12QQmlPropertyEE5valueE@Qt_6 6.6.0
 _ZN13QMetaSequence12MetaSequenceI5QListI16QQmlScriptStringEE5valueE@Qt_6 6.6.0
 _ZN13QMetaSequence12MetaSequenceI5QListI18QRegularExpressionEE5valueE@Qt_6 6.6.0
 _ZN13QMetaSequence12MetaSequenceI5QListI4QMapI7QString8QVariantEEE5valueE@Qt_6 6.6.0
 _ZN13QMetaSequence12MetaSequenceI5QListI4QUrlEE5valueE@Qt_6 6.6.0
 _ZN13QMetaSequence12MetaSequenceI5QListI5QCharEE5valueE@Qt_6 6.6.0
 _ZN13QMetaSequence12MetaSequenceI5QListI5QDateEE5valueE@Qt_6 6.6.0
 _ZN13QMetaSequence12MetaSequenceI5QListI5QRectEE5valueE@Qt_6 6.6.0
 _ZN13QMetaSequence12MetaSequenceI5QListI5QSizeEE5valueE@Qt_6 6.6.0
 _ZN13QMetaSequence12MetaSequenceI5QListI5QTimeEE5valueE@Qt_6 6.6.0
 _ZN13QMetaSequence12MetaSequenceI5QListI6QPointEE5valueE@Qt_6 6.6.0
 _ZN13QMetaSequence12MetaSequenceI5QListI6QRectFEE5valueE@Qt_6 6.6.0
 _ZN13QMetaSequence12MetaSequenceI5QListI6QSizeFEE5valueE@Qt_6 6.6.0
 _ZN13QMetaSequence12MetaSequenceI5QListI7QPointFEE5valueE@Qt_6 6.6.0
 _ZN13QMetaSequence12MetaSequenceI5QListI7QStringEE5valueE@Qt_6 6.6.0
 _ZN13QMetaSequence12MetaSequenceI5QListI8QJSValueEE5valueE@Qt_6 6.6.0
 _ZN13QMetaSequence12MetaSequenceI5QListI8QVariantEE5valueE@Qt_6 6.6.0
 _ZN13QMetaSequence12MetaSequenceI5QListI9QDateTimeEE5valueE@Qt_6 6.6.0
 _ZN13QMetaSequence12MetaSequenceI5QListIDnEE5valueE@Qt_6 6.6.0
 _ZN13QMetaSequence12MetaSequenceI5QListIP7QObjectEE5valueE@Qt_6 6.6.0
 _ZN13QMetaSequence12MetaSequenceI5QListIaEE5valueE@Qt_6 6.6.0
 _ZN13QMetaSequence12MetaSequenceI5QListIbEE5valueE@Qt_6 6.6.0
 _ZN13QMetaSequence12MetaSequenceI5QListIdEE5valueE@Qt_6 6.6.0
 _ZN13QMetaSequence12MetaSequenceI5QListIfEE5valueE@Qt_6 6.6.0
 _ZN13QMetaSequence12MetaSequenceI5QListIhEE5valueE@Qt_6 6.6.0
 _ZN13QMetaSequence12MetaSequenceI5QListIiEE5valueE@Qt_6 6.6.0
 _ZN13QMetaSequence12MetaSequenceI5QListIjEE5valueE@Qt_6 6.6.0
 _ZN13QMetaSequence12MetaSequenceI5QListIsEE5valueE@Qt_6 6.6.0
 _ZN13QMetaSequence12MetaSequenceI5QListItEE5valueE@Qt_6 6.6.0
 _ZN13QMetaSequence12MetaSequenceI5QListIxEE5valueE@Qt_6 6.6.0
 _ZN13QMetaSequence12MetaSequenceI5QListIyEE5valueE@Qt_6 6.6.0
 _ZN13QMetaSequence12MetaSequenceISt6vectorI11QModelIndexSaIS2_EEE5valueE@Qt_6 6.6.0
 _ZN13QMetaSequence12MetaSequenceISt6vectorI4QUrlSaIS2_EEE5valueE@Qt_6 6.6.0
 _ZN13QMetaSequence12MetaSequenceISt6vectorI7QStringSaIS2_EEE5valueE@Qt_6 6.6.0
 _ZN13QMetaSequence12MetaSequenceISt6vectorIbSaIbEEE5valueE@Qt_6 6.6.0
 _ZN13QMetaSequence12MetaSequenceISt6vectorIdSaIdEEE5valueE@Qt_6 6.6.0
 _ZN13QMetaSequence12MetaSequenceISt6vectorIfSaIfEEE5valueE@Qt_6 6.6.0
 _ZN13QMetaSequence12MetaSequenceISt6vectorIiSaIiEEE5valueE@Qt_6 6.6.0
 _ZN13QQmlComponent11beginCreateEP11QQmlContext@Qt_6 6.6.0
 _ZN13QQmlComponent11qt_metacallEN11QMetaObject4CallEiPPv@Qt_6 6.6.0
 _ZN13QQmlComponent11qt_metacastEPKc@Qt_6 6.6.0
 _ZN13QQmlComponent12createObjectEP7QObjectRK4QMapI7QString8QVariantE@Qt_6 6.6.0
 _ZN13QQmlComponent13statusChangedENS_6StatusE@Qt_6 6.6.0
 _ZN13QQmlComponent14completeCreateEv@Qt_6 6.6.0
 _ZN13QQmlComponent14loadFromModuleE14QAnyStringViewS0_NS_15CompilationModeE@Qt_6 6.6.0
 _ZN13QQmlComponent15progressChangedEd@Qt_6 6.6.0
 _ZN13QQmlComponent16staticMetaObjectE@Qt_6 6.6.0
 _ZN13QQmlComponent20setInitialPropertiesEP7QObjectRK4QMapI7QString8QVariantE@Qt_6 6.6.0
 _ZN13QQmlComponent21qmlAttachedPropertiesEP7QObject@Qt_6 6.6.0
 _ZN13QQmlComponent27createWithInitialPropertiesERK4QMapI7QString8QVariantEP11QQmlContext@Qt_6 6.6.0
 _ZN13QQmlComponent6createEP11QQmlContext@Qt_6 6.6.0
 _ZN13QQmlComponent6createER13QQmlIncubatorP11QQmlContextS3_@Qt_6 6.6.0
 _ZN13QQmlComponent7loadUrlERK4QUrl@Qt_6 6.6.0
 _ZN13QQmlComponent7loadUrlERK4QUrlNS_15CompilationModeE@Qt_6 6.6.0
 _ZN13QQmlComponent7setDataERK10QByteArrayRK4QUrl@Qt_6 6.6.0
 _ZN13QQmlComponentC1EP10QQmlEngine14QAnyStringViewS2_NS_15CompilationModeEP7QObject@Qt_6 6.6.0
 _ZN13QQmlComponentC1EP10QQmlEngine14QAnyStringViewS2_P7QObject@Qt_6 6.6.0
 _ZN13QQmlComponentC1EP10QQmlEngineP7QObject@Qt_6 6.6.0
 _ZN13QQmlComponentC1EP10QQmlEngineRK4QUrlNS_15CompilationModeEP7QObject@Qt_6 6.6.0
 _ZN13QQmlComponentC1EP10QQmlEngineRK4QUrlP7QObject@Qt_6 6.6.0
 _ZN13QQmlComponentC1EP10QQmlEngineRK7QStringNS_15CompilationModeEP7QObject@Qt_6 6.6.0
 _ZN13QQmlComponentC1EP10QQmlEngineRK7QStringP7QObject@Qt_6 6.6.0
 _ZN13QQmlComponentC1EP7QObject@Qt_6 6.6.0
 _ZN13QQmlComponentC2EP10QQmlEngine14QAnyStringViewS2_NS_15CompilationModeEP7QObject@Qt_6 6.6.0
 _ZN13QQmlComponentC2EP10QQmlEngine14QAnyStringViewS2_P7QObject@Qt_6 6.6.0
 _ZN13QQmlComponentC2EP10QQmlEngineP7QObject@Qt_6 6.6.0
 _ZN13QQmlComponentC2EP10QQmlEngineRK4QUrlNS_15CompilationModeEP7QObject@Qt_6 6.6.0
 _ZN13QQmlComponentC2EP10QQmlEngineRK4QUrlP7QObject@Qt_6 6.6.0
 _ZN13QQmlComponentC2EP10QQmlEngineRK7QStringNS_15CompilationModeEP7QObject@Qt_6 6.6.0
 _ZN13QQmlComponentC2EP10QQmlEngineRK7QStringP7QObject@Qt_6 6.6.0
 _ZN13QQmlComponentC2EP7QObject@Qt_6 6.6.0
 _ZN13QQmlComponentD0Ev@Qt_6 6.6.0
 _ZN13QQmlComponentD1Ev@Qt_6 6.6.0
 _ZN13QQmlComponentD2Ev@Qt_6 6.6.0
 _ZN13QQmlIncubator13statusChangedENS_6StatusE@Qt_6 6.6.0
 _ZN13QQmlIncubator15forceCompletionEv@Qt_6 6.6.0
 _ZN13QQmlIncubator15setInitialStateEP7QObject@Qt_6 6.6.0
 _ZN13QQmlIncubator20setInitialPropertiesERK4QMapI7QString8QVariantE@Qt_6 6.6.0
 _ZN13QQmlIncubator5clearEv@Qt_6 6.6.0
 _ZN13QQmlIncubatorC1ENS_14IncubationModeE@Qt_6 6.6.0
 _ZN13QQmlIncubatorC2ENS_14IncubationModeE@Qt_6 6.6.0
 _ZN13QQmlIncubatorD0Ev@Qt_6 6.6.0
 _ZN13QQmlIncubatorD1Ev@Qt_6 6.6.0
 _ZN13QQmlIncubatorD2Ev@Qt_6 6.6.0
 _ZN14QQmlExpression10clearErrorEv@Qt_6 6.6.0
 _ZN14QQmlExpression11qt_metacallEN11QMetaObject4CallEiPPv@Qt_6 6.6.0
 _ZN14QQmlExpression11qt_metacastEPKc@Qt_6 6.6.0
 _ZN14QQmlExpression12valueChangedEv@Qt_6 6.6.0
 _ZN14QQmlExpression13setExpressionERK7QString@Qt_6 6.6.0
 _ZN14QQmlExpression16staticMetaObjectE@Qt_6 6.6.0
 _ZN14QQmlExpression17setSourceLocationERK7QStringii@Qt_6 6.6.0
 _ZN14QQmlExpression23setNotifyOnValueChangedEb@Qt_6 6.6.0
 _ZN14QQmlExpression8evaluateEPb@Qt_6 6.6.0
 _ZN14QQmlExpressionC1EP11QQmlContextP7QObjectRK7QStringS3_@Qt_6 6.6.0
 _ZN14QQmlExpressionC1ERK16QQmlScriptStringP11QQmlContextP7QObjectS6_@Qt_6 6.6.0
 _ZN14QQmlExpressionC1Ev@Qt_6 6.6.0
 _ZN14QQmlExpressionC2EP11QQmlContextP7QObjectRK7QStringS3_@Qt_6 6.6.0
 _ZN14QQmlExpressionC2ERK16QQmlScriptStringP11QQmlContextP7QObjectS6_@Qt_6 6.6.0
 _ZN14QQmlExpressionC2Ev@Qt_6 6.6.0
 _ZN14QQmlExpressionD0Ev@Qt_6 6.6.0
 _ZN14QQmlExpressionD1Ev@Qt_6 6.6.0
 _ZN14QQmlExpressionD2Ev@Qt_6 6.6.0
 _ZN15QJSManagedValue11setPropertyERK7QStringRK8QJSValue@Qt_6 6.6.0
 _ZN15QJSManagedValue11setPropertyEjRK8QJSValue@Qt_6 6.6.0
 _ZN15QJSManagedValue12setPrototypeERKS_@Qt_6 6.6.0
 _ZN15QJSManagedValue14deletePropertyERK7QString@Qt_6 6.6.0
 _ZN15QJSManagedValue14deletePropertyEj@Qt_6 6.6.0
 _ZN15QJSManagedValueC1E8QJSValueP9QJSEngine@Qt_6 6.6.0
 _ZN15QJSManagedValueC1EOS_@Qt_6 6.6.0
 _ZN15QJSManagedValueC1ERK17QJSPrimitiveValueP9QJSEngine@Qt_6 6.6.0
 _ZN15QJSManagedValueC1ERK7QStringP9QJSEngine@Qt_6 6.6.0
 _ZN15QJSManagedValueC1ERK8QVariantP9QJSEngine@Qt_6 6.6.0
 _ZN15QJSManagedValueC2E8QJSValueP9QJSEngine@Qt_6 6.6.0
 _ZN15QJSManagedValueC2EOS_@Qt_6 6.6.0
 _ZN15QJSManagedValueC2ERK17QJSPrimitiveValueP9QJSEngine@Qt_6 6.6.0
 _ZN15QJSManagedValueC2ERK7QStringP9QJSEngine@Qt_6 6.6.0
 _ZN15QJSManagedValueC2ERK8QVariantP9QJSEngine@Qt_6 6.6.0
 _ZN15QJSManagedValueD1Ev@Qt_6 6.6.0
 _ZN15QJSManagedValueD2Ev@Qt_6 6.6.0
 _ZN15QJSManagedValueaSEOS_@Qt_6 6.6.0
 _ZN15QQmlEasingEnums16staticMetaObjectE@Qt_6 6.6.0
 _ZN15QQmlPropertyMap11qt_metacallEN11QMetaObject4CallEiPPv@Qt_6 6.6.0
 _ZN15QQmlPropertyMap11qt_metacastEPKc@Qt_6 6.6.0
 _ZN15QQmlPropertyMap11updateValueERK7QStringRK8QVariant@Qt_6 6.6.0
 _ZN15QQmlPropertyMap12valueChangedERK7QStringRK8QVariant@Qt_6 6.6.0
 _ZN15QQmlPropertyMap16staticMetaObjectE@Qt_6 6.6.0
 _ZN15QQmlPropertyMap5clearERK7QString@Qt_6 6.6.0
 _ZN15QQmlPropertyMap6freezeEv@Qt_6 6.6.0
 _ZN15QQmlPropertyMap6insertERK5QHashI7QString8QVariantE@Qt_6 6.6.0
 _ZN15QQmlPropertyMap6insertERK7QStringRK8QVariant@Qt_6 6.6.0
 _ZN15QQmlPropertyMapC1EP7QObject@Qt_6 6.6.0
 _ZN15QQmlPropertyMapC1EPK11QMetaObjectP7QObject@Qt_6 6.6.0
 _ZN15QQmlPropertyMapC2EP7QObject@Qt_6 6.6.0
 _ZN15QQmlPropertyMapC2EPK11QMetaObjectP7QObject@Qt_6 6.6.0
 _ZN15QQmlPropertyMapD0Ev@Qt_6 6.6.0
 _ZN15QQmlPropertyMapD1Ev@Qt_6 6.6.0
 _ZN15QQmlPropertyMapD2Ev@Qt_6 6.6.0
 _ZN15QQmlPropertyMapixERK7QString@Qt_6 6.6.0
 _ZN16QJSValueIterator4nextEv@Qt_6 6.6.0
 _ZN16QJSValueIteratorC1ERK8QJSValue@Qt_6 6.6.0
 _ZN16QJSValueIteratorC2ERK8QJSValue@Qt_6 6.6.0
 _ZN16QJSValueIteratorD1Ev@Qt_6 6.6.0
 _ZN16QJSValueIteratorD2Ev@Qt_6 6.6.0
 _ZN16QJSValueIteratoraSER8QJSValue@Qt_6 6.6.0
 _ZN16QQmlFileSelector11qt_metacallEN11QMetaObject4CallEiPPv@Qt_6 6.6.0
 _ZN16QQmlFileSelector11qt_metacastEPKc@Qt_6 6.6.0
 _ZN16QQmlFileSelector11setSelectorEP13QFileSelector@Qt_6 6.6.0
 _ZN16QQmlFileSelector16staticMetaObjectE@Qt_6 6.6.0
 _ZN16QQmlFileSelector17setExtraSelectorsERK5QListI7QStringE@Qt_6 6.6.0
 _ZN16QQmlFileSelector3getEP10QQmlEngine@Qt_6 6.6.0
 _ZN16QQmlFileSelectorC1EP10QQmlEngineP7QObject@Qt_6 6.6.0
 _ZN16QQmlFileSelectorC2EP10QQmlEngineP7QObject@Qt_6 6.6.0
 _ZN16QQmlFileSelectorD0Ev@Qt_6 6.6.0
 _ZN16QQmlFileSelectorD1Ev@Qt_6 6.6.0
 _ZN16QQmlFileSelectorD2Ev@Qt_6 6.6.0
 _ZN16QQmlParserStatusC1Ev@Qt_6 6.6.0
 _ZN16QQmlParserStatusC2Ev@Qt_6 6.6.0
 _ZN16QQmlParserStatusD0Ev@Qt_6 6.6.0
 _ZN16QQmlParserStatusD1Ev@Qt_6 6.6.0
 _ZN16QQmlParserStatusD2Ev@Qt_6 6.6.0
 _ZN16QQmlScriptString16staticMetaObjectE@Qt_6 6.6.0
 _ZN16QQmlScriptStringC1ERK7QStringP11QQmlContextP7QObject@Qt_6 6.6.0
 _ZN16QQmlScriptStringC1ERKS_@Qt_6 6.6.0
 _ZN16QQmlScriptStringC1Ev@Qt_6 6.6.0
 _ZN16QQmlScriptStringC2ERK7QStringP11QQmlContextP7QObject@Qt_6 6.6.0
 _ZN16QQmlScriptStringC2ERKS_@Qt_6 6.6.0
 _ZN16QQmlScriptStringC2Ev@Qt_6 6.6.0
 _ZN16QQmlScriptStringD1Ev@Qt_6 6.6.0
 _ZN16QQmlScriptStringD2Ev@Qt_6 6.6.0
 _ZN16QQmlScriptStringaSERKS_@Qt_6 6.6.0
 _ZN17QJSPrimitiveValue8toStringEd@Qt_6 6.6.0
 _ZN17QQmlListReferenceC1EP7QObjectPKc@Qt_6 6.6.0
 _ZN17QQmlListReferenceC1EP7QObjectPKcP10QQmlEngine@Qt_6 6.6.0
 _ZN17QQmlListReferenceC1ERK8QVariant@Qt_6 6.6.0
 _ZN17QQmlListReferenceC1ERK8QVariantP10QQmlEngine@Qt_6 6.6.0
 _ZN17QQmlListReferenceC1ERKS_@Qt_6 6.6.0
 _ZN17QQmlListReferenceC1Ev@Qt_6 6.6.0
 _ZN17QQmlListReferenceC2EP7QObjectPKc@Qt_6 6.6.0
 _ZN17QQmlListReferenceC2EP7QObjectPKcP10QQmlEngine@Qt_6 6.6.0
 _ZN17QQmlListReferenceC2ERK8QVariant@Qt_6 6.6.0
 _ZN17QQmlListReferenceC2ERK8QVariantP10QQmlEngine@Qt_6 6.6.0
 _ZN17QQmlListReferenceC2ERKS_@Qt_6 6.6.0
 _ZN17QQmlListReferenceC2Ev@Qt_6 6.6.0
 _ZN17QQmlListReferenceD1Ev@Qt_6 6.6.0
 _ZN17QQmlListReferenceD2Ev@Qt_6 6.6.0
 _ZN17QQmlListReferenceaSERKS_@Qt_6 6.6.0
 _ZN19QQmlExtensionPlugin11qt_metacallEN11QMetaObject4CallEiPPv@Qt_6 6.6.0
 _ZN19QQmlExtensionPlugin11qt_metacastEPKc@Qt_6 6.6.0
 _ZN19QQmlExtensionPlugin15unregisterTypesEv@Qt_6 6.6.0
 _ZN19QQmlExtensionPlugin16initializeEngineEP10QQmlEnginePKc@Qt_6 6.6.0
 _ZN19QQmlExtensionPlugin16staticMetaObjectE@Qt_6 6.6.0
 _ZN19QQmlExtensionPluginC1EP7QObject@Qt_6 6.6.0
 _ZN19QQmlExtensionPluginC2EP7QObject@Qt_6 6.6.0
 _ZN19QQmlExtensionPluginD0Ev@Qt_6 6.6.0
 _ZN19QQmlExtensionPluginD1Ev@Qt_6 6.6.0
 _ZN19QQmlExtensionPluginD2Ev@Qt_6 6.6.0
 _ZN20QQmlDebuggingEnabler11setServicesERK5QListI7QStringE@Qt_6 6.6.0
 _ZN20QQmlDebuggingEnabler15enableDebuggingEb@Qt_6 6.6.0
 _ZN20QQmlDebuggingEnabler16debuggerServicesEv@Qt_6 6.6.0
 _ZN20QQmlDebuggingEnabler16profilerServicesEv@Qt_6 6.6.0
 _ZN20QQmlDebuggingEnabler17inspectorServicesEv@Qt_6 6.6.0
 _ZN20QQmlDebuggingEnabler19startDebugConnectorERK7QStringRK5QHashIS0_8QVariantE@Qt_6 6.6.0
 _ZN20QQmlDebuggingEnabler19startTcpDebugServerEiNS_9StartModeERK7QString@Qt_6 6.6.0
 _ZN20QQmlDebuggingEnabler22connectToLocalDebuggerERK7QStringNS_9StartModeE@Qt_6 6.6.0
 _ZN20QQmlDebuggingEnabler22nativeDebuggerServicesEv@Qt_6 6.6.0
 _ZN20QQmlDebuggingEnablerC1Eb@Qt_6 6.6.0
 _ZN20QQmlDebuggingEnablerC2Eb@Qt_6 6.6.0
 _ZN20QQmlStringConverters14dateFromStringERK7QStringPb@Qt_6 6.6.0
 _ZN20QQmlStringConverters14rgbaFromStringERK7QStringPb@Qt_6 6.6.0
 _ZN20QQmlStringConverters14timeFromStringERK7QStringPb@Qt_6 6.6.0
 _ZN20QQmlStringConverters15colorFromStringERK7QStringPb@Qt_6 6.6.0
 _ZN20QQmlStringConverters15rectFFromStringERK7QStringPb@Qt_6 6.6.0
 _ZN20QQmlStringConverters15sizeFFromStringERK7QStringPb@Qt_6 6.6.0
 _ZN20QQmlStringConverters16pointFFromStringERK7QStringPb@Qt_6 6.6.0
 _ZN20QQmlStringConverters17variantFromStringERK7QString9QMetaTypePb@Qt_6 6.6.0
 _ZN20QQmlStringConverters18dateTimeFromStringERK7QStringPb@Qt_6 6.6.0
 _ZN21QQmlApplicationEngine11qt_metacallEN11QMetaObject4CallEiPPv@Qt_6 6.6.0
 _ZN21QQmlApplicationEngine11qt_metacastEPKc@Qt_6 6.6.0
 _ZN21QQmlApplicationEngine13objectCreatedEP7QObjectRK4QUrl@Qt_6 6.6.0
 _ZN21QQmlApplicationEngine14loadFromModuleE14QAnyStringViewS0_@Qt_6 6.6.0
 _ZN21QQmlApplicationEngine16staticMetaObjectE@Qt_6 6.6.0
 _ZN21QQmlApplicationEngine20objectCreationFailedERK4QUrl@Qt_6 6.6.0
 _ZN21QQmlApplicationEngine20setInitialPropertiesERK4QMapI7QString8QVariantE@Qt_6 6.6.0
 _ZN21QQmlApplicationEngine21setExtraFileSelectorsERK5QListI7QStringE@Qt_6 6.6.0
 _ZN21QQmlApplicationEngine4loadERK4QUrl@Qt_6 6.6.0
 _ZN21QQmlApplicationEngine4loadERK7QString@Qt_6 6.6.0
 _ZN21QQmlApplicationEngine8loadDataERK10QByteArrayRK4QUrl@Qt_6 6.6.0
 _ZN21QQmlApplicationEngineC1E14QAnyStringViewS0_P7QObject@Qt_6 6.6.0
 _ZN21QQmlApplicationEngineC1EP7QObject@Qt_6 6.6.0
 _ZN21QQmlApplicationEngineC1ERK4QUrlP7QObject@Qt_6 6.6.0
 _ZN21QQmlApplicationEngineC1ERK7QStringP7QObject@Qt_6 6.6.0
 _ZN21QQmlApplicationEngineC2E14QAnyStringViewS0_P7QObject@Qt_6 6.6.0
 _ZN21QQmlApplicationEngineC2EP7QObject@Qt_6 6.6.0
 _ZN21QQmlApplicationEngineC2ERK4QUrlP7QObject@Qt_6 6.6.0
 _ZN21QQmlApplicationEngineC2ERK7QStringP7QObject@Qt_6 6.6.0
 _ZN21QQmlApplicationEngineD0Ev@Qt_6 6.6.0
 _ZN21QQmlApplicationEngineD1Ev@Qt_6 6.6.0
 _ZN21QQmlApplicationEngineD2Ev@Qt_6 6.6.0
 _ZN21QQmlImageProviderBase11qt_metacallEN11QMetaObject4CallEiPPv@Qt_6 6.6.0
 _ZN21QQmlImageProviderBase11qt_metacastEPKc@Qt_6 6.6.0
 _ZN21QQmlImageProviderBase16staticMetaObjectE@Qt_6 6.6.0
 _ZN21QQmlImageProviderBaseC1Ev@Qt_6 6.6.0
 _ZN21QQmlImageProviderBaseC2Ev@Qt_6 6.6.0
 _ZN21QQmlImageProviderBaseD0Ev@Qt_6 6.6.0
 _ZN21QQmlImageProviderBaseD1Ev@Qt_6 6.6.0
 _ZN21QQmlImageProviderBaseD2Ev@Qt_6 6.6.0
 _ZN22QQmlExtensionInterfaceD0Ev@Qt_6 6.6.0
 _ZN22QQmlExtensionInterfaceD1Ev@Qt_6 6.6.0
 _ZN22QQmlExtensionInterfaceD2Ev@Qt_6 6.6.0
 _ZN22QQmlModuleRegistrationC1EPKcPFvvE@Qt_6 6.6.0
 _ZN22QQmlModuleRegistrationC1EPKciPFvvE@Qt_6 6.6.0
 _ZN22QQmlModuleRegistrationC2EPKcPFvvE@Qt_6 6.6.0
 _ZN22QQmlModuleRegistrationC2EPKciPFvvE@Qt_6 6.6.0
 _ZN22QQmlModuleRegistrationD1Ev@Qt_6 6.6.0
 _ZN22QQmlModuleRegistrationD2Ev@Qt_6 6.6.0
 _ZN23QQmlPropertyValueSourceC1Ev@Qt_6 6.6.0
 _ZN23QQmlPropertyValueSourceC2Ev@Qt_6 6.6.0
 _ZN23QQmlPropertyValueSourceD0Ev@Qt_6 6.6.0
 _ZN23QQmlPropertyValueSourceD1Ev@Qt_6 6.6.0
 _ZN23QQmlPropertyValueSourceD2Ev@Qt_6 6.6.0
 _ZN24QQmlIncubationController11incubateForEi@Qt_6 6.6.0
 _ZN24QQmlIncubationController13incubateWhileEPSt6atomicIbEi@Qt_6 6.6.0
 _ZN24QQmlIncubationController28incubatingObjectCountChangedEi@Qt_6 6.6.0
 _ZN24QQmlIncubationControllerC1Ev@Qt_6 6.6.0
 _ZN24QQmlIncubationControllerC2Ev@Qt_6 6.6.0
 _ZN24QQmlIncubationControllerD0Ev@Qt_6 6.6.0
 _ZN24QQmlIncubationControllerD1Ev@Qt_6 6.6.0
 _ZN24QQmlIncubationControllerD2Ev@Qt_6 6.6.0
 _ZN25QQmlEngineExtensionPlugin11qt_metacallEN11QMetaObject4CallEiPPv@Qt_6 6.6.0
 _ZN25QQmlEngineExtensionPlugin11qt_metacastEPKc@Qt_6 6.6.0
 _ZN25QQmlEngineExtensionPlugin16initializeEngineEP10QQmlEnginePKc@Qt_6 6.6.0
 _ZN25QQmlEngineExtensionPlugin16staticMetaObjectE@Qt_6 6.6.0
 _ZN25QQmlEngineExtensionPluginC1EP7QObject@Qt_6 6.6.0
 _ZN25QQmlEngineExtensionPluginC2EP7QObject@Qt_6 6.6.0
 _ZN25QQmlEngineExtensionPluginD0Ev@Qt_6 6.6.0
 _ZN25QQmlEngineExtensionPluginD1Ev@Qt_6 6.6.0
 _ZN25QQmlEngineExtensionPluginD2Ev@Qt_6 6.6.0
 _ZN27QQmlTypesExtensionInterfaceD0Ev@Qt_6 6.6.0
 _ZN27QQmlTypesExtensionInterfaceD1Ev@Qt_6 6.6.0
 _ZN27QQmlTypesExtensionInterfaceD2Ev@Qt_6 6.6.0
 _ZN28QQmlEngineExtensionInterfaceD0Ev@Qt_6 6.6.0
 _ZN28QQmlEngineExtensionInterfaceD1Ev@Qt_6 6.6.0
 _ZN28QQmlEngineExtensionInterfaceD2Ev@Qt_6 6.6.0
 _ZN31QQmlNetworkAccessManagerFactoryD0Ev@Qt_6 6.6.0
 _ZN31QQmlNetworkAccessManagerFactoryD1Ev@Qt_6 6.6.0
 _ZN31QQmlNetworkAccessManagerFactoryD2Ev@Qt_6 6.6.0
 _ZN6QQmlJS3AST10CaseClause7accept0EPNS0_11BaseVisitorE@Qt_6 6.6.0
 _ZN6QQmlJS3AST10Expression7accept0EPNS0_11BaseVisitorE@Qt_6 6.6.0
 _ZN6QQmlJS3AST10FromClause7accept0EPNS0_11BaseVisitorE@Qt_6 6.6.0
 _ZN6QQmlJS3AST10UiRequired7accept0EPNS0_11BaseVisitorE@Qt_6 6.6.0
 _ZN6QQmlJS3AST11BaseVisitorC1Et@Qt_6 6.6.0
 _ZN6QQmlJS3AST11BaseVisitorC2Et@Qt_6 6.6.0
 _ZN6QQmlJS3AST11BaseVisitorD0Ev@Qt_6 6.6.0
 _ZN6QQmlJS3AST11BaseVisitorD1Ev@Qt_6 6.6.0
 _ZN6QQmlJS3AST11BaseVisitorD2Ev@Qt_6 6.6.0
 _ZN6QQmlJS3AST11CaseClauses7accept0EPNS0_11BaseVisitorE@Qt_6 6.6.0
 _ZN6QQmlJS3AST11ExportsList7accept0EPNS0_11BaseVisitorE@Qt_6 6.6.0
 _ZN6QQmlJS3AST11IfStatement7accept0EPNS0_11BaseVisitorE@Qt_6 6.6.0
 _ZN6QQmlJS3AST11ImportsList7accept0EPNS0_11BaseVisitorE@Qt_6 6.6.0
 _ZN6QQmlJS3AST11TrueLiteral7accept0EPNS0_11BaseVisitorE@Qt_6 6.6.0
 _ZN6QQmlJS3AST12ArgumentList7accept0EPNS0_11BaseVisitorE@Qt_6 6.6.0
 _ZN6QQmlJS3AST12ArrayPattern7accept0EPNS0_11BaseVisitorE@Qt_6 6.6.0
 _ZN6QQmlJS3AST12ExportClause7accept0EPNS0_11BaseVisitorE@Qt_6 6.6.0
 _ZN6QQmlJS3AST12FalseLiteral7accept0EPNS0_11BaseVisitorE@Qt_6 6.6.0
 _ZN6QQmlJS3AST12ForStatement7accept0EPNS0_11BaseVisitorE@Qt_6 6.6.0
 _ZN6QQmlJS3AST12ImportClause7accept0EPNS0_11BaseVisitorE@Qt_6 6.6.0
 _ZN6QQmlJS3AST12NamedImports7accept0EPNS0_11BaseVisitorE@Qt_6 6.6.0
 _ZN6QQmlJS3AST12SuperLiteral7accept0EPNS0_11BaseVisitorE@Qt_6 6.6.0
 _ZN6QQmlJS3AST12TryStatement7accept0EPNS0_11BaseVisitorE@Qt_6 6.6.0
 _ZN6QQmlJS3AST12UiAnnotation7accept0EPNS0_11BaseVisitorE@Qt_6 6.6.0
 _ZN6QQmlJS3AST13DefaultClause7accept0EPNS0_11BaseVisitorE@Qt_6 6.6.0
 _ZN6QQmlJS3AST13NewExpression7accept0EPNS0_11BaseVisitorE@Qt_6 6.6.0
 _ZN6QQmlJS3AST13NotExpression7accept0EPNS0_11BaseVisitorE@Qt_6 6.6.0
 _ZN6QQmlJS3AST13ObjectPattern7accept0EPNS0_11BaseVisitorE@Qt_6 6.6.0
 _ZN6QQmlJS3AST13RegExpLiteral7accept0EPNS0_11BaseVisitorE@Qt_6 6.6.0
 _ZN6QQmlJS3AST13StatementList7accept0EPNS0_11BaseVisitorE@Qt_6 6.6.0
 _ZN6QQmlJS3AST13StringLiteral7accept0EPNS0_11BaseVisitorE@Qt_6 6.6.0
 _ZN6QQmlJS3AST13UiQualifiedId7accept0EPNS0_11BaseVisitorE@Qt_6 6.6.0
 _ZN6QQmlJS3AST13WithStatement7accept0EPNS0_11BaseVisitorE@Qt_6 6.6.0
 _ZN6QQmlJS3AST14BreakStatement7accept0EPNS0_11BaseVisitorE@Qt_6 6.6.0
 _ZN6QQmlJS3AST14CallExpression7accept0EPNS0_11BaseVisitorE@Qt_6 6.6.0
 _ZN6QQmlJS3AST14EmptyStatement7accept0EPNS0_11BaseVisitorE@Qt_6 6.6.0
 _ZN6QQmlJS3AST14ExpressionNode14expressionCastEv@Qt_6 6.6.0
 _ZN6QQmlJS3AST14NullExpression7accept0EPNS0_11BaseVisitorE@Qt_6 6.6.0
 _ZN6QQmlJS3AST14NumericLiteral7accept0EPNS0_11BaseVisitorE@Qt_6 6.6.0
 _ZN6QQmlJS3AST14PatternElement7accept0EPNS0_11BaseVisitorE@Qt_6 6.6.0
 _ZN6QQmlJS3AST14TaggedTemplate7accept0EPNS0_11BaseVisitorE@Qt_6 6.6.0
 _ZN6QQmlJS3AST14ThisExpression7accept0EPNS0_11BaseVisitorE@Qt_6 6.6.0
 _ZN6QQmlJS3AST14ThrowStatement7accept0EPNS0_11BaseVisitorE@Qt_6 6.6.0
 _ZN6QQmlJS3AST14TypeAnnotation7accept0EPNS0_11BaseVisitorE@Qt_6 6.6.0
 _ZN6QQmlJS3AST14TypeExpression7accept0EPNS0_11BaseVisitorE@Qt_6 6.6.0
 _ZN6QQmlJS3AST14UiArrayBinding7accept0EPNS0_11BaseVisitorE@Qt_6 6.6.0
 _ZN6QQmlJS3AST14UiObjectMember18uiObjectMemberCastEv@Qt_6 6.6.0
 _ZN6QQmlJS3AST14UiPublicMember7accept0EPNS0_11BaseVisitorE@Qt_6 6.6.0
 _ZN6QQmlJS3AST14VoidExpression7accept0EPNS0_11BaseVisitorE@Qt_6 6.6.0
 _ZN6QQmlJS3AST14WhileStatement7accept0EPNS0_11BaseVisitorE@Qt_6 6.6.0
 _ZN6QQmlJS3AST15ExportSpecifier7accept0EPNS0_11BaseVisitorE@Qt_6 6.6.0
 _ZN6QQmlJS3AST15ImportSpecifier7accept0EPNS0_11BaseVisitorE@Qt_6 6.6.0
 _ZN6QQmlJS3AST15NameSpaceImport7accept0EPNS0_11BaseVisitorE@Qt_6 6.6.0
 _ZN6QQmlJS3AST15PatternProperty7accept0EPNS0_11BaseVisitorE@Qt_6 6.6.0
 _ZN6QQmlJS3AST15ReturnStatement7accept0EPNS0_11BaseVisitorE@Qt_6 6.6.0
 _ZN6QQmlJS3AST15SwitchStatement7accept0EPNS0_11BaseVisitorE@Qt_6 6.6.0
 _ZN6QQmlJS3AST15TemplateLiteral7accept0EPNS0_11BaseVisitorE@Qt_6 6.6.0
 _ZN6QQmlJS3AST15TildeExpression7accept0EPNS0_11BaseVisitorE@Qt_6 6.6.0
 _ZN6QQmlJS3AST15UiObjectBinding7accept0EPNS0_11BaseVisitorE@Qt_6 6.6.0
 _ZN6QQmlJS3AST15UiParameterList7accept0EPNS0_11BaseVisitorE@Qt_6 6.6.0
 _ZN6QQmlJS3AST15UiScriptBinding7accept0EPNS0_11BaseVisitorE@Qt_6 6.6.0
 _ZN6QQmlJS3AST15UiSourceElement7accept0EPNS0_11BaseVisitorE@Qt_6 6.6.0
 _ZN6QQmlJS3AST15YieldExpression7accept0EPNS0_11BaseVisitorE@Qt_6 6.6.0
 _ZN6QQmlJS3AST16BinaryExpression20binaryExpressionCastEv@Qt_6 6.6.0
 _ZN6QQmlJS3AST16BinaryExpression7accept0EPNS0_11BaseVisitorE@Qt_6 6.6.0
 _ZN6QQmlJS3AST16ClassDeclaration7accept0EPNS0_11BaseVisitorE@Qt_6 6.6.0
 _ZN6QQmlJS3AST16ClassElementList6finishEv@Qt_6 6.6.0
 _ZN6QQmlJS3AST16ClassElementList7accept0EPNS0_11BaseVisitorE@Qt_6 6.6.0
 _ZN6QQmlJS3AST16DeleteExpression7accept0EPNS0_11BaseVisitorE@Qt_6 6.6.0
 _ZN6QQmlJS3AST16DoWhileStatement7accept0EPNS0_11BaseVisitorE@Qt_6 6.6.0
 _ZN6QQmlJS3AST16ForEachStatement7accept0EPNS0_11BaseVisitorE@Qt_6 6.6.0
 _ZN6QQmlJS3AST16NestedExpression17asClassDefinitionEv@Qt_6 6.6.0
 _ZN6QQmlJS3AST16NestedExpression20asFunctionDefinitionEv@Qt_6 6.6.0
 _ZN6QQmlJS3AST16NestedExpression7accept0EPNS0_11BaseVisitorE@Qt_6 6.6.0
 _ZN6QQmlJS3AST16TypeOfExpression7accept0EPNS0_11BaseVisitorE@Qt_6 6.6.0
 _ZN6QQmlJS3AST16UiAnnotationList7accept0EPNS0_11BaseVisitorE@Qt_6 6.6.0
 _ZN6QQmlJS3AST16UiEnumMemberList7accept0EPNS0_11BaseVisitorE@Qt_6 6.6.0
 _ZN6QQmlJS3AST16UiHeaderItemList7accept0EPNS0_11BaseVisitorE@Qt_6 6.6.0
 _ZN6QQmlJS3AST17ContinueStatement7accept0EPNS0_11BaseVisitorE@Qt_6 6.6.0
 _ZN6QQmlJS3AST17DebuggerStatement7accept0EPNS0_11BaseVisitorE@Qt_6 6.6.0
 _ZN6QQmlJS3AST17ExportDeclaration7accept0EPNS0_11BaseVisitorE@Qt_6 6.6.0
 _ZN6QQmlJS3AST17ImportDeclaration7accept0EPNS0_11BaseVisitorE@Qt_6 6.6.0
 _ZN6QQmlJS3AST17LabelledStatement7accept0EPNS0_11BaseVisitorE@Qt_6 6.6.0
 _ZN6QQmlJS3AST17UiArrayMemberList7accept0EPNS0_11BaseVisitorE@Qt_6 6.6.0
 _ZN6QQmlJS3AST17UiEnumDeclaration7accept0EPNS0_11BaseVisitorE@Qt_6 6.6.0
 _ZN6QQmlJS3AST17UiInlineComponent7accept0EPNS0_11BaseVisitorE@Qt_6 6.6.0
 _ZN6QQmlJS3AST17UiPragmaValueList7accept0EPNS0_11BaseVisitorE@Qt_6 6.6.0
 _ZN6QQmlJS3AST17VariableStatement7accept0EPNS0_11BaseVisitorE@Qt_6 6.6.0
 _ZN6QQmlJS3AST18PatternElementList7accept0EPNS0_11BaseVisitorE@Qt_6 6.6.0
 _ZN6QQmlJS3AST18UiObjectDefinition7accept0EPNS0_11BaseVisitorE@Qt_6 6.6.0
 _ZN6QQmlJS3AST18UiObjectMemberList7accept0EPNS0_11BaseVisitorE@Qt_6 6.6.0
 _ZN6QQmlJS3AST18UiVersionSpecifier7accept0EPNS0_11BaseVisitorE@Qt_6 6.6.0
 _ZN6QQmlJS3AST19ExpressionStatement7accept0EPNS0_11BaseVisitorE@Qt_6 6.6.0
 _ZN6QQmlJS3AST19FormalParameterList7accept0EPNS0_11BaseVisitorE@Qt_6 6.6.0
 _ZN6QQmlJS3AST19FunctionDeclaration7accept0EPNS0_11BaseVisitorE@Qt_6 6.6.0
 _ZN6QQmlJS3AST19NewMemberExpression7accept0EPNS0_11BaseVisitorE@Qt_6 6.6.0
 _ZN6QQmlJS3AST19PatternPropertyList7accept0EPNS0_11BaseVisitorE@Qt_6 6.6.0
 _ZN6QQmlJS3AST19UiObjectInitializer7accept0EPNS0_11BaseVisitorE@Qt_6 6.6.0
 _ZN6QQmlJS3AST19UnaryPlusExpression7accept0EPNS0_11BaseVisitorE@Qt_6 6.6.0
 _ZN6QQmlJS3AST20ComputedPropertyName7accept0EPNS0_11BaseVisitorE@Qt_6 6.6.0
 _ZN6QQmlJS3AST20IdentifierExpression7accept0EPNS0_11BaseVisitorE@Qt_6 6.6.0
 _ZN6QQmlJS3AST20UnaryMinusExpression7accept0EPNS0_11BaseVisitorE@Qt_6 6.6.0
 _ZN6QQmlJS3AST21ArrayMemberExpression7accept0EPNS0_11BaseVisitorE@Qt_6 6.6.0
 _ZN6QQmlJS3AST21ConditionalExpression7accept0EPNS0_11BaseVisitorE@Qt_6 6.6.0
 _ZN6QQmlJS3AST21FieldMemberExpression7accept0EPNS0_11BaseVisitorE@Qt_6 6.6.0
 _ZN6QQmlJS3AST22IdentifierPropertyName7accept0EPNS0_11BaseVisitorE@Qt_6 6.6.0
 _ZN6QQmlJS3AST22LeftHandSideExpression26leftHandSideExpressionCastEv@Qt_6 6.6.0
 _ZN6QQmlJS3AST22PreDecrementExpression7accept0EPNS0_11BaseVisitorE@Qt_6 6.6.0
 _ZN6QQmlJS3AST22PreIncrementExpression7accept0EPNS0_11BaseVisitorE@Qt_6 6.6.0
 _ZN6QQmlJS3AST23PostDecrementExpression7accept0EPNS0_11BaseVisitorE@Qt_6 6.6.0
 _ZN6QQmlJS3AST23PostIncrementExpression7accept0EPNS0_11BaseVisitorE@Qt_6 6.6.0
 _ZN6QQmlJS3AST23VariableDeclarationList7accept0EPNS0_11BaseVisitorE@Qt_6 6.6.0
 _ZN6QQmlJS3AST25StringLiteralPropertyName7accept0EPNS0_11BaseVisitorE@Qt_6 6.6.0
 _ZN6QQmlJS3AST26NumericLiteralPropertyName7accept0EPNS0_11BaseVisitorE@Qt_6 6.6.0
 _ZN6QQmlJS3AST4Type7accept0EPNS0_11BaseVisitorE@Qt_6 6.6.0
 _ZN6QQmlJS3AST5Catch7accept0EPNS0_11BaseVisitorE@Qt_6 6.6.0
 _ZN6QQmlJS3AST7Elision7accept0EPNS0_11BaseVisitorE@Qt_6 6.6.0
 _ZN6QQmlJS3AST7Finally7accept0EPNS0_11BaseVisitorE@Qt_6 6.6.0
 _ZN6QQmlJS3AST7Pattern11patternCastEv@Qt_6 6.6.0
 _ZN6QQmlJS3AST7Program7accept0EPNS0_11BaseVisitorE@Qt_6 6.6.0
 _ZN6QQmlJS3AST7VisitorC1Et@Qt_6 6.6.0
 _ZN6QQmlJS3AST7VisitorC2Et@Qt_6 6.6.0
 _ZN6QQmlJS3AST8ESModule7accept0EPNS0_11BaseVisitorE@Qt_6 6.6.0
 _ZN6QQmlJS3AST8UiImport7accept0EPNS0_11BaseVisitorE@Qt_6 6.6.0
 _ZN6QQmlJS3AST8UiPragma7accept0EPNS0_11BaseVisitorE@Qt_6 6.6.0
 _ZN6QQmlJS3AST9CaseBlock7accept0EPNS0_11BaseVisitorE@Qt_6 6.6.0
 _ZN6QQmlJS3AST9Statement13statementCastEv@Qt_6 6.6.0
 _ZN6QQmlJS3AST9UiProgram7accept0EPNS0_11BaseVisitorE@Qt_6 6.6.0
 _ZN6QQmlJS5Lexer10isHexDigitE5QChar@Qt_6 6.6.0
 _ZN6QQmlJS5Lexer10scanNumberE5QChar@Qt_6 6.6.0
 _ZN6QQmlJS5Lexer10scanStringENS0_14ScanStringModeE@Qt_6 6.6.0
 _ZN6QQmlJS5Lexer12isOctalDigitEt@Qt_6 6.6.0
 _ZN6QQmlJS5Lexer13isIdentLetterE5QChar@Qt_6 6.6.0
 _ZN6QQmlJS5Lexer14isDecimalDigitEt@Qt_6 6.6.0
 _ZN6QQmlJS5Lexer17scanVersionNumberE5QChar@Qt_6 6.6.0
 _ZN6QQmlJS5Lexer24decodeHexEscapeCharacterEPb@Qt_6 6.6.0
 _ZN6QQmlJS5Lexer28decodeUnicodeEscapeCharacterEPb@Qt_6 6.6.0
 _ZN6QQmlJS5Lexer30syncProhibitAutomaticSemicolonEv@Qt_6 6.6.0
 _ZN6QQmlJS5Lexer3lexEv@Qt_6 6.6.0
 _ZN6QQmlJS5Lexer7setCodeERK7QStringibNS0_16CodeContinuationE@Qt_6 6.6.0
 _ZN6QQmlJS5Lexer8classifyEPK5QCharii@Qt_6 6.6.0
 _ZN6QQmlJS5Lexer8setStateERKNS0_5StateE@Qt_6 6.6.0
 _ZN6QQmlJS5Lexer9scanTokenEv@Qt_6 6.6.0
 _ZN6QQmlJS6Parser14lookaheadTokenEPNS_5LexerE@Qt_6 6.6.0
 _ZN6QQmlJS6Parser15reallocateStackEv@Qt_6 6.6.0
 _ZN6QQmlJS6Parser20reparseAsQualifiedIdEPNS_3AST14ExpressionNodeE@Qt_6 6.6.0
 _ZN6QQmlJS6Parser31ensureNoFunctionTypeAnnotationsEPNS_3AST14TypeAnnotationEPNS1_19FormalParameterListE@Qt_6 6.6.0
 _ZN6QQmlJS6Parser5parseEi@Qt_6 6.6.0
 _ZN6QQmlJS6Parser9pushTokenEi@Qt_6 6.6.0
 _ZN6QQmlJS6ParserD1Ev@Qt_6 6.6.0
 _ZN6QQmlJS6ParserD2Ev@Qt_6 6.6.0
 _ZN6QQmlJSlsE6QDebugRKNS_5Lexer5StateE@Qt_6 6.6.0
 _ZN6QQmlJSlsE6QDebugRKNS_5LexerE@Qt_6 6.6.0
 _ZN8QJSValue11setPropertyERK7QStringRKS_@Qt_6 6.6.0
 _ZN8QJSValue11setPropertyEjRKS_@Qt_6 6.6.0
 _ZN8QJSValue12setPrototypeERKS_@Qt_6 6.6.0
 _ZN8QJSValue14deletePropertyERK7QString@Qt_6 6.6.0
 _ZN8QJSValueC1ENS_12SpecialValueE@Qt_6 6.6.0
 _ZN8QJSValueC1EO15QJSManagedValue@Qt_6 6.6.0
 _ZN8QJSValueC1EO17QJSPrimitiveValue@Qt_6 6.6.0
 _ZN8QJSValueC1EPKc@Qt_6 6.6.0
 _ZN8QJSValueC1ERK13QLatin1String@Qt_6 6.6.0
 _ZN8QJSValueC1ERK7QString@Qt_6 6.6.0
 _ZN8QJSValueC1ERKS_@Qt_6 6.6.0
 _ZN8QJSValueC1Eb@Qt_6 6.6.0
 _ZN8QJSValueC1Ed@Qt_6 6.6.0
 _ZN8QJSValueC1Ei@Qt_6 6.6.0
 _ZN8QJSValueC1Ej@Qt_6 6.6.0
 _ZN8QJSValueC2ENS_12SpecialValueE@Qt_6 6.6.0
 _ZN8QJSValueC2EO15QJSManagedValue@Qt_6 6.6.0
 _ZN8QJSValueC2EO17QJSPrimitiveValue@Qt_6 6.6.0
 _ZN8QJSValueC2EPKc@Qt_6 6.6.0
 _ZN8QJSValueC2ERK13QLatin1String@Qt_6 6.6.0
 _ZN8QJSValueC2ERK7QString@Qt_6 6.6.0
 _ZN8QJSValueC2ERKS_@Qt_6 6.6.0
 _ZN8QJSValueC2Eb@Qt_6 6.6.0
 _ZN8QJSValueC2Ed@Qt_6 6.6.0
 _ZN8QJSValueC2Ei@Qt_6 6.6.0
 _ZN8QJSValueC2Ej@Qt_6 6.6.0
 _ZN8QJSValueD1Ev@Qt_6 6.6.0
 _ZN8QJSValueD2Ev@Qt_6 6.6.0
 _ZN8QJSValueaSERKS_@Qt_6 6.6.0
 _ZN8QQmlFile11isLocalFileERK4QUrl@Qt_6 6.6.0
 _ZN8QQmlFile11isLocalFileERK7QString@Qt_6 6.6.0
 _ZN8QQmlFile13isSynchronousERK4QUrl@Qt_6 6.6.0
 _ZN8QQmlFile13isSynchronousERK7QString@Qt_6 6.6.0
 _ZN8QQmlFile15connectFinishedEP7QObjectPKc@Qt_6 6.6.0
 _ZN8QQmlFile15connectFinishedEP7QObjecti@Qt_6 6.6.0
 _ZN8QQmlFile19urlToLocalFileOrQrcERK4QUrl@Qt_6 6.6.0
 _ZN8QQmlFile19urlToLocalFileOrQrcERK7QString@Qt_6 6.6.0
 _ZN8QQmlFile23connectDownloadProgressEP7QObjectPKc@Qt_6 6.6.0
 _ZN8QQmlFile23connectDownloadProgressEP7QObjecti@Qt_6 6.6.0
 _ZN8QQmlFile4loadEP10QQmlEngineRK4QUrl@Qt_6 6.6.0
 _ZN8QQmlFile4loadEP10QQmlEngineRK7QString@Qt_6 6.6.0
 _ZN8QQmlFile5clearEP7QObject@Qt_6 6.6.0
 _ZN8QQmlFile5clearEv@Qt_6 6.6.0
 _ZN8QQmlFileC1EP10QQmlEngineRK4QUrl@Qt_6 6.6.0
 _ZN8QQmlFileC1EP10QQmlEngineRK7QString@Qt_6 6.6.0
 _ZN8QQmlFileC1Ev@Qt_6 6.6.0
 _ZN8QQmlFileC2EP10QQmlEngineRK4QUrl@Qt_6 6.6.0
 _ZN8QQmlFileC2EP10QQmlEngineRK7QString@Qt_6 6.6.0
 _ZN8QQmlFileC2Ev@Qt_6 6.6.0
 _ZN8QQmlFileD1Ev@Qt_6 6.6.0
 _ZN8QQmlFileD2Ev@Qt_6 6.6.0
 _ZN8QQmlInfoC1EP15QQmlInfoPrivate@Qt_6 6.6.0
 _ZN8QQmlInfoC1ERKS_@Qt_6 6.6.0
 _ZN8QQmlInfoC2EP15QQmlInfoPrivate@Qt_6 6.6.0
 _ZN8QQmlInfoC2ERKS_@Qt_6 6.6.0
 _ZN8QQmlInfoD1Ev@Qt_6 6.6.0
 _ZN8QQmlInfoD2Ev@Qt_6 6.6.0
 _ZN9QJSEngine10catchErrorEv@Qt_6 6.6.0
 _ZN9QJSEngine10newQObjectEP7QObject@Qt_6 6.6.0
 _ZN9QJSEngine10throwErrorEN8QJSValue9ErrorTypeERK7QString@Qt_6 6.6.0
 _ZN9QJSEngine10throwErrorERK7QString@Qt_6 6.6.0
 _ZN9QJSEngine10throwErrorERK8QJSValue@Qt_6 6.6.0
 _ZN9QJSEngine11qt_metacallEN11QMetaObject4CallEiPPv@Qt_6 6.6.0
 _ZN9QJSEngine11qt_metacastEPKc@Qt_6 6.6.0
 _ZN9QJSEngine12importModuleERK7QString@Qt_6 6.6.0
 _ZN9QJSEngine13convertStringERK7QString9QMetaTypePv@Qt_6 6.6.0
 _ZN9QJSEngine13createManagedE9QMetaTypePKv@Qt_6 6.6.0
 _ZN9QJSEngine13setUiLanguageERK7QString@Qt_6 6.6.0
 _ZN9QJSEngine14collectGarbageEv@Qt_6 6.6.0
 _ZN9QJSEngine14convertManagedERK15QJSManagedValue9QMetaTypePv@Qt_6 6.6.0
 _ZN9QJSEngine14convertManagedERK15QJSManagedValueiPv@Qt_6 6.6.0
 _ZN9QJSEngine14convertVariantERK8QVariant9QMetaTypePv@Qt_6 6.6.0
 _ZN9QJSEngine14newErrorObjectEN8QJSValue9ErrorTypeERK7QString@Qt_6 6.6.0
 _ZN9QJSEngine14newQMetaObjectEPK11QMetaObject@Qt_6 6.6.0
 _ZN9QJSEngine14registerModuleERK7QStringRK8QJSValue@Qt_6 6.6.0
 _ZN9QJSEngine14setInterruptedEb@Qt_6 6.6.0
 _ZN9QJSEngine15convertMetaTypeE9QMetaTypePKvS0_Pv@Qt_6 6.6.0
 _ZN9QJSEngine15createPrimitiveE9QMetaTypePKv@Qt_6 6.6.0
 _ZN9QJSEngine15objectOwnershipEP7QObject@Qt_6 6.6.0
 _ZN9QJSEngine16convertPrimitiveERK17QJSPrimitiveValue9QMetaTypePv@Qt_6 6.6.0
 _ZN9QJSEngine16staticMetaObjectE@Qt_6 6.6.0
 _ZN9QJSEngine17installExtensionsE6QFlagsINS_9ExtensionEERK8QJSValue@Qt_6 6.6.0
 _ZN9QJSEngine17uiLanguageChangedEv@Qt_6 6.6.0
 _ZN9QJSEngine18setObjectOwnershipEP7QObjectNS_15ObjectOwnershipE@Qt_6 6.6.0
 _ZN9QJSEngine21convertDateTimeToDateERK9QDateTime@Qt_6 6.6.0
 _ZN9QJSEngine22convertQObjectToStringEP7QObject@Qt_6 6.6.0
 _ZN9QJSEngine23convertDateTimeToStringERK9QDateTime@Qt_6 6.6.0
 _ZN9QJSEngine6createE9QMetaTypePKv@Qt_6 6.6.0
 _ZN9QJSEngine6createEiPKv@Qt_6 6.6.0
 _ZN9QJSEngine8evaluateERK7QStringS2_iP5QListIS0_E@Qt_6 6.6.0
 _ZN9QJSEngine8newArrayEj@Qt_6 6.6.0
 _ZN9QJSEngine9convertV2ERK8QJSValue9QMetaTypePv@Qt_6 6.6.0
 _ZN9QJSEngine9convertV2ERK8QJSValueiPv@Qt_6 6.6.0
 _ZN9QJSEngine9newObjectEv@Qt_6 6.6.0
 _ZN9QJSEngine9newSymbolERK7QString@Qt_6 6.6.0
 _ZN9QJSEngineC1EP7QObject@Qt_6 6.6.0
 _ZN9QJSEngineC1Ev@Qt_6 6.6.0
 _ZN9QJSEngineC2EP7QObject@Qt_6 6.6.0
 _ZN9QJSEngineC2Ev@Qt_6 6.6.0
 _ZN9QJSEngineD0Ev@Qt_6 6.6.0
 _ZN9QJSEngineD1Ev@Qt_6 6.6.0
 _ZN9QJSEngineD2Ev@Qt_6 6.6.0
 _ZN9QQmlError14setDescriptionERK7QString@Qt_6 6.6.0
 _ZN9QQmlError14setMessageTypeE9QtMsgType@Qt_6 6.6.0
 _ZN9QQmlError6setUrlERK4QUrl@Qt_6 6.6.0
 _ZN9QQmlError7setLineEi@Qt_6 6.6.0
 _ZN9QQmlError9setColumnEi@Qt_6 6.6.0
 _ZN9QQmlError9setObjectEP7QObject@Qt_6 6.6.0
 _ZN9QQmlErrorC1ERKS_@Qt_6 6.6.0
 _ZN9QQmlErrorC1Ev@Qt_6 6.6.0
 _ZN9QQmlErrorC2ERKS_@Qt_6 6.6.0
 _ZN9QQmlErrorC2Ev@Qt_6 6.6.0
 _ZN9QQmlErrorD1Ev@Qt_6 6.6.0
 _ZN9QQmlErrorD2Ev@Qt_6 6.6.0
 _ZN9QQmlErroraSERKS_@Qt_6 6.6.0
 _ZNK10QQmlEngine10metaObjectEv@Qt_6 6.6.0
 _ZNK10QQmlEngine11rootContextEv@Qt_6 6.6.0
 _ZNK10QQmlEngine12interceptUrlERK4QUrlN26QQmlAbstractUrlInterceptor8DataTypeE@Qt_6 6.6.0
 _ZNK10QQmlEngine13imageProviderERK7QString@Qt_6 6.6.0
 _ZNK10QQmlEngine14importPathListEv@Qt_6 6.6.0
 _ZNK10QQmlEngine14pluginPathListEv@Qt_6 6.6.0
 _ZNK10QQmlEngine14urlInterceptorEv@Qt_6 6.6.0
 _ZNK10QQmlEngine15capturePropertyEP7QObjectRK13QMetaProperty@Qt_6 6.6.0
 _ZNK10QQmlEngine15urlInterceptorsEv@Qt_6 6.6.0
 _ZNK10QQmlEngine18offlineStoragePathEv@Qt_6 6.6.0
 _ZNK10QQmlEngine20incubationControllerEv@Qt_6 6.6.0
 _ZNK10QQmlEngine20networkAccessManagerEv@Qt_6 6.6.0
 _ZNK10QQmlEngine27networkAccessManagerFactoryEv@Qt_6 6.6.0
 _ZNK10QQmlEngine29outputWarningsToStandardErrorEv@Qt_6 6.6.0
 _ZNK10QQmlEngine30offlineStorageDatabaseFilePathERK7QString@Qt_6 6.6.0
 _ZNK10QQmlEngine7baseUrlEv@Qt_6 6.6.0
 _ZNK11QQmlContext10metaObjectEv@Qt_6 6.6.0
 _ZNK11QQmlContext11resolvedUrlERK4QUrl@Qt_6 6.6.0
 _ZNK11QQmlContext13contextObjectEv@Qt_6 6.6.0
 _ZNK11QQmlContext13nameForObjectEPK7QObject@Qt_6 6.6.0
 _ZNK11QQmlContext13objectForNameERK7QString@Qt_6 6.6.0
 _ZNK11QQmlContext13parentContextEv@Qt_6 6.6.0
 _ZNK11QQmlContext14importedScriptERK7QString@Qt_6 6.6.0
 _ZNK11QQmlContext15contextPropertyERK7QString@Qt_6 6.6.0
 _ZNK11QQmlContext6engineEv@Qt_6 6.6.0
 _ZNK11QQmlContext7baseUrlEv@Qt_6 6.6.0
 _ZNK11QQmlContext7isValidEv@Qt_6 6.6.0
 _ZNK11QQmlPrivate18AOTCompiledContext10jsMetaTypeEi@Qt_6 6.6.0
 _ZNK11QQmlPrivate18AOTCompiledContext10thisObjectEv@Qt_6 6.6.0
 _ZNK11QQmlPrivate18AOTCompiledContext13captureLookupEjP7QObject@Qt_6 6.6.0
 _ZNK11QQmlPrivate18AOTCompiledContext13getEnumLookupEjPv@Qt_6 6.6.0
 _ZNK11QQmlPrivate18AOTCompiledContext14getValueLookupEjPvS1_@Qt_6 6.6.0
 _ZNK11QQmlPrivate18AOTCompiledContext14loadTypeLookupEjPv@Qt_6 6.6.0
 _ZNK11QQmlPrivate18AOTCompiledContext14setValueLookupEjPvS1_@Qt_6 6.6.0
 _ZNK11QQmlPrivate18AOTCompiledContext14writeToConsoleE9QtMsgTypeRK7QStringPK16QLoggingCategory@Qt_6 6.6.0
 _ZNK11QQmlPrivate18AOTCompiledContext15getObjectLookupEjP7QObjectPv@Qt_6 6.6.0
 _ZNK11QQmlPrivate18AOTCompiledContext15setObjectLookupEjP7QObjectPv@Qt_6 6.6.0
 _ZNK11QQmlPrivate18AOTCompiledContext15storeNameSloppyEjPv9QMetaType@Qt_6 6.6.0
 _ZNK11QQmlPrivate18AOTCompiledContext16callGlobalLookupEjPPvPK9QMetaTypei@Qt_6 6.6.0
 _ZNK11QQmlPrivate18AOTCompiledContext16loadGlobalLookupEjPv9QMetaType@Qt_6 6.6.0
 _ZNK11QQmlPrivate18AOTCompiledContext17initGetEnumLookupEjPK11QMetaObjectPKcS5_@Qt_6 6.6.0
 _ZNK11QQmlPrivate18AOTCompiledContext18captureTranslationEv@Qt_6 6.6.0
 _ZNK11QQmlPrivate18AOTCompiledContext18constructValueTypeE9QMetaTypePK11QMetaObjectiPv@Qt_6 6.6.0
 _ZNK11QQmlPrivate18AOTCompiledContext18initGetValueLookupEjPK11QMetaObject9QMetaType@Qt_6 6.6.0
 _ZNK11QQmlPrivate18AOTCompiledContext18initLoadTypeLookupEjj@Qt_6 6.6.0
 _ZNK11QQmlPrivate18AOTCompiledContext18initSetValueLookupEjPK11QMetaObject9QMetaType@Qt_6 6.6.0
 _ZNK11QQmlPrivate18AOTCompiledContext18loadAttachedLookupEjP7QObjectPv@Qt_6 6.6.0
 _ZNK11QQmlPrivate18AOTCompiledContext18translationContextEv@Qt_6 6.6.0
 _ZNK11QQmlPrivate18AOTCompiledContext19initGetObjectLookupEjP7QObject9QMetaType@Qt_6 6.6.0
 _ZNK11QQmlPrivate18AOTCompiledContext19initSetObjectLookupEjP7QObject9QMetaType@Qt_6 6.6.0
 _ZNK11QQmlPrivate18AOTCompiledContext19loadContextIdLookupEjPv@Qt_6 6.6.0
 _ZNK11QQmlPrivate18AOTCompiledContext19loadSingletonLookupEjPv@Qt_6 6.6.0
 _ZNK11QQmlPrivate18AOTCompiledContext20initCallGlobalLookupEj@Qt_6 6.6.0
 _ZNK11QQmlPrivate18AOTCompiledContext20initLoadGlobalLookupEj@Qt_6 6.6.0
 _ZNK11QQmlPrivate18AOTCompiledContext20lookupResultMetaTypeEj@Qt_6 6.6.0
 _ZNK11QQmlPrivate18AOTCompiledContext21setInstructionPointerEi@Qt_6 6.6.0
 _ZNK11QQmlPrivate18AOTCompiledContext22initLoadAttachedLookupEjjP7QObject@Qt_6 6.6.0
 _ZNK11QQmlPrivate18AOTCompiledContext22resolveLoggingCategoryEP7QObjectPb@Qt_6 6.6.0
 _ZNK11QQmlPrivate18AOTCompiledContext23initLoadContextIdLookupEj@Qt_6 6.6.0
 _ZNK11QQmlPrivate18AOTCompiledContext23initLoadSingletonLookupEjj@Qt_6 6.6.0
 _ZNK11QQmlPrivate18AOTCompiledContext23setReturnValueUndefinedEv@Qt_6 6.6.0
 _ZNK11QQmlPrivate18AOTCompiledContext24callObjectPropertyLookupEjP7QObjectPPvPK9QMetaTypei@Qt_6 6.6.0
 _ZNK11QQmlPrivate18AOTCompiledContext24javaScriptGlobalPropertyEj@Qt_6 6.6.0
 _ZNK11QQmlPrivate18AOTCompiledContext28callQmlContextPropertyLookupEjPPvPK9QMetaTypei@Qt_6 6.6.0
 _ZNK11QQmlPrivate18AOTCompiledContext28initCallObjectPropertyLookupEj@Qt_6 6.6.0
 _ZNK11QQmlPrivate18AOTCompiledContext29loadScopeObjectPropertyLookupEjPv@Qt_6 6.6.0
 _ZNK11QQmlPrivate18AOTCompiledContext31captureQmlContextPropertyLookupEj@Qt_6 6.6.0
 _ZNK11QQmlPrivate18AOTCompiledContext32initCallQmlContextPropertyLookupEj@Qt_6 6.6.0
 _ZNK11QQmlPrivate18AOTCompiledContext33initLoadScopeObjectPropertyLookupEj9QMetaType@Qt_6 6.6.0
 _ZNK11QQmlPrivate18AOTCompiledContext9qmlEngineEv@Qt_6 6.6.0
 _ZNK12QQmlProperty10isBindableEv@Qt_6 6.6.0
 _ZNK12QQmlProperty10isPropertyEv@Qt_6 6.6.0
 _ZNK12QQmlProperty10isWritableEv@Qt_6 6.6.0
 _ZNK12QQmlProperty12isDesignableEv@Qt_6 6.6.0
 _ZNK12QQmlProperty12isResettableEv@Qt_6 6.6.0
 _ZNK12QQmlProperty12propertyTypeEv@Qt_6 6.6.0
 _ZNK12QQmlProperty15hasNotifySignalEv@Qt_6 6.6.0
 _ZNK12QQmlProperty16isSignalPropertyEv@Qt_6 6.6.0
 _ZNK12QQmlProperty16propertyMetaTypeEv@Qt_6 6.6.0
 _ZNK12QQmlProperty16propertyTypeNameEv@Qt_6 6.6.0
 _ZNK12QQmlProperty17needsNotifySignalEv@Qt_6 6.6.0
 _ZNK12QQmlProperty19connectNotifySignalEP7QObjectPKc@Qt_6 6.6.0
 _ZNK12QQmlProperty19connectNotifySignalEP7QObjecti@Qt_6 6.6.0
 _ZNK12QQmlProperty20propertyTypeCategoryEv@Qt_6 6.6.0
 _ZNK12QQmlProperty4nameEv@Qt_6 6.6.0
 _ZNK12QQmlProperty4readEv@Qt_6 6.6.0
 _ZNK12QQmlProperty4typeEv@Qt_6 6.6.0
 _ZNK12QQmlProperty5indexEv@Qt_6 6.6.0
 _ZNK12QQmlProperty5resetEv@Qt_6 6.6.0
 _ZNK12QQmlProperty5writeERK8QVariant@Qt_6 6.6.0
 _ZNK12QQmlProperty6methodEv@Qt_6 6.6.0
 _ZNK12QQmlProperty6objectEv@Qt_6 6.6.0
 _ZNK12QQmlProperty7isValidEv@Qt_6 6.6.0
 _ZNK12QQmlProperty8propertyEv@Qt_6 6.6.0
 _ZNK12QQmlPropertyeqERKS_@Qt_6 6.6.0
 _ZNK13QQmlComponent10metaObjectEv@Qt_6 6.6.0
 _ZNK13QQmlComponent11errorStringEv@Qt_6 6.6.0
 _ZNK13QQmlComponent15creationContextEv@Qt_6 6.6.0
 _ZNK13QQmlComponent3urlEv@Qt_6 6.6.0
 _ZNK13QQmlComponent6engineEv@Qt_6 6.6.0
 _ZNK13QQmlComponent6errorsEv@Qt_6 6.6.0
 _ZNK13QQmlComponent6isNullEv@Qt_6 6.6.0
 _ZNK13QQmlComponent6statusEv@Qt_6 6.6.0
 _ZNK13QQmlComponent7isBoundEv@Qt_6 6.6.0
 _ZNK13QQmlComponent7isErrorEv@Qt_6 6.6.0
 _ZNK13QQmlComponent7isReadyEv@Qt_6 6.6.0
 _ZNK13QQmlComponent8progressEv@Qt_6 6.6.0
 _ZNK13QQmlComponent9isLoadingEv@Qt_6 6.6.0
 _ZNK13QQmlIncubator14incubationModeEv@Qt_6 6.6.0
 _ZNK13QQmlIncubator6errorsEv@Qt_6 6.6.0
 _ZNK13QQmlIncubator6isNullEv@Qt_6 6.6.0
 _ZNK13QQmlIncubator6objectEv@Qt_6 6.6.0
 _ZNK13QQmlIncubator6statusEv@Qt_6 6.6.0
 _ZNK13QQmlIncubator7isErrorEv@Qt_6 6.6.0
 _ZNK13QQmlIncubator7isReadyEv@Qt_6 6.6.0
 _ZNK13QQmlIncubator9isLoadingEv@Qt_6 6.6.0
 _ZNK14QQmlExpression10expressionEv@Qt_6 6.6.0
 _ZNK14QQmlExpression10lineNumberEv@Qt_6 6.6.0
 _ZNK14QQmlExpression10metaObjectEv@Qt_6 6.6.0
 _ZNK14QQmlExpression10sourceFileEv@Qt_6 6.6.0
 _ZNK14QQmlExpression11scopeObjectEv@Qt_6 6.6.0
 _ZNK14QQmlExpression12columnNumberEv@Qt_6 6.6.0
 _ZNK14QQmlExpression20notifyOnValueChangedEv@Qt_6 6.6.0
 _ZNK14QQmlExpression5errorEv@Qt_6 6.6.0
 _ZNK14QQmlExpression6engineEv@Qt_6 6.6.0
 _ZNK14QQmlExpression7contextEv@Qt_6 6.6.0
 _ZNK14QQmlExpression8hasErrorEv@Qt_6 6.6.0
 _ZNK15QJSManagedValue10jsMetaTypeEv@Qt_6 6.6.0
 _ZNK15QJSManagedValue10toDateTimeEv@Qt_6 6.6.0
 _ZNK15QJSManagedValue11hasPropertyERK7QString@Qt_6 6.6.0
 _ZNK15QJSManagedValue11hasPropertyEj@Qt_6 6.6.0
 _ZNK15QJSManagedValue11toPrimitiveEv@Qt_6 6.6.0
 _ZNK15QJSManagedValue12isJsMetaTypeEv@Qt_6 6.6.0
 _ZNK15QJSManagedValue13isQMetaObjectEv@Qt_6 6.6.0
 _ZNK15QJSManagedValue13jsMetaMembersEv@Qt_6 6.6.0
 _ZNK15QJSManagedValue13toQMetaObjectEv@Qt_6 6.6.0
 _ZNK15QJSManagedValue14hasOwnPropertyERK7QString@Qt_6 6.6.0
 _ZNK15QJSManagedValue14hasOwnPropertyEj@Qt_6 6.6.0
 _ZNK15QJSManagedValue14strictlyEqualsERKS_@Qt_6 6.6.0
 _ZNK15QJSManagedValue16callWithInstanceERK8QJSValueRK5QListIS0_E@Qt_6 6.6.0
 _ZNK15QJSManagedValue17callAsConstructorERK5QListI8QJSValueE@Qt_6 6.6.0
 _ZNK15QJSManagedValue17jsMetaInstantiateERK5QListI8QJSValueE@Qt_6 6.6.0
 _ZNK15QJSManagedValue19isRegularExpressionEv@Qt_6 6.6.0
 _ZNK15QJSManagedValue19toRegularExpressionEv@Qt_6 6.6.0
 _ZNK15QJSManagedValue4callERK5QListI8QJSValueE@Qt_6 6.6.0
 _ZNK15QJSManagedValue4typeEv@Qt_6 6.6.0
 _ZNK15QJSManagedValue5isUrlEv@Qt_6 6.6.0
 _ZNK15QJSManagedValue5toUrlEv@Qt_6 6.6.0
 _ZNK15QJSManagedValue6engineEv@Qt_6 6.6.0
 _ZNK15QJSManagedValue6equalsERKS_@Qt_6 6.6.0
 _ZNK15QJSManagedValue6isDateEv@Qt_6 6.6.0
 _ZNK15QJSManagedValue6isNullEv@Qt_6 6.6.0
 _ZNK15QJSManagedValue7isArrayEv@Qt_6 6.6.0
 _ZNK15QJSManagedValue7isErrorEv@Qt_6 6.6.0
 _ZNK15QJSManagedValue8propertyERK7QString@Qt_6 6.6.0
 _ZNK15QJSManagedValue8propertyEj@Qt_6 6.6.0
 _ZNK15QJSManagedValue8toNumberEv@Qt_6 6.6.0
 _ZNK15QJSManagedValue8toStringEv@Qt_6 6.6.0
 _ZNK15QJSManagedValue9isIntegerEv@Qt_6 6.6.0
 _ZNK15QJSManagedValue9isQObjectEv@Qt_6 6.6.0
 _ZNK15QJSManagedValue9isVariantEv@Qt_6 6.6.0
 _ZNK15QJSManagedValue9prototypeEv@Qt_6 6.6.0
 _ZNK15QJSManagedValue9toBooleanEv@Qt_6 6.6.0
 _ZNK15QJSManagedValue9toIntegerEv@Qt_6 6.6.0
 _ZNK15QJSManagedValue9toJSValueEv@Qt_6 6.6.0
 _ZNK15QJSManagedValue9toQObjectEv@Qt_6 6.6.0
 _ZNK15QJSManagedValue9toVariantEv@Qt_6 6.6.0
 _ZNK15QQmlPropertyMap10metaObjectEv@Qt_6 6.6.0
 _ZNK15QQmlPropertyMap4keysEv@Qt_6 6.6.0
 _ZNK15QQmlPropertyMap4sizeEv@Qt_6 6.6.0
 _ZNK15QQmlPropertyMap5countEv@Qt_6 6.6.0
 _ZNK15QQmlPropertyMap5valueERK7QString@Qt_6 6.6.0
 _ZNK15QQmlPropertyMap7isEmptyEv@Qt_6 6.6.0
 _ZNK15QQmlPropertyMap8containsERK7QString@Qt_6 6.6.0
 _ZNK15QQmlPropertyMapixERK7QString@Qt_6 6.6.0
 _ZNK16QJSValueIterator4nameEv@Qt_6 6.6.0
 _ZNK16QJSValueIterator5valueEv@Qt_6 6.6.0
 _ZNK16QJSValueIterator7hasNextEv@Qt_6 6.6.0
 _ZNK16QQmlFileSelector10metaObjectEv@Qt_6 6.6.0
 _ZNK16QQmlFileSelector8selectorEv@Qt_6 6.6.0
 _ZNK16QQmlScriptString13isNullLiteralEv@Qt_6 6.6.0
 _ZNK16QQmlScriptString13numberLiteralEPb@Qt_6 6.6.0
 _ZNK16QQmlScriptString13stringLiteralEv@Qt_6 6.6.0
 _ZNK16QQmlScriptString14booleanLiteralEPb@Qt_6 6.6.0
 _ZNK16QQmlScriptString18isUndefinedLiteralEv@Qt_6 6.6.0
 _ZNK16QQmlScriptString7isEmptyEv@Qt_6 6.6.0
 _ZNK16QQmlScriptStringeqERKS_@Qt_6 6.6.0
 _ZNK16QQmlScriptStringneERKS_@Qt_6 6.6.0
 _ZNK17QQmlListReference10canReplaceEv@Qt_6 6.6.0
 _ZNK17QQmlListReference10isReadableEv@Qt_6 6.6.0
 _ZNK17QQmlListReference10removeLastEv@Qt_6 6.6.0
 _ZNK17QQmlListReference13canRemoveLastEv@Qt_6 6.6.0
 _ZNK17QQmlListReference13isManipulableEv@Qt_6 6.6.0
 _ZNK17QQmlListReference15listElementTypeEv@Qt_6 6.6.0
 (subst)_ZNK17QQmlListReference2atE{qptrdiff}@Qt_6 6.6.0
 _ZNK17QQmlListReference5canAtEv@Qt_6 6.6.0
 _ZNK17QQmlListReference5clearEv@Qt_6 6.6.0
 _ZNK17QQmlListReference5countEv@Qt_6 6.6.0
 _ZNK17QQmlListReference6appendEP7QObject@Qt_6 6.6.0
 _ZNK17QQmlListReference6objectEv@Qt_6 6.6.0
 _ZNK17QQmlListReference7isValidEv@Qt_6 6.6.0
 (subst)_ZNK17QQmlListReference7replaceE{qptrdiff}P7QObject@Qt_6 6.6.0
 _ZNK17QQmlListReference8canClearEv@Qt_6 6.6.0
 _ZNK17QQmlListReference8canCountEv@Qt_6 6.6.0
 _ZNK17QQmlListReference9canAppendEv@Qt_6 6.6.0
 _ZNK19QQmlExtensionPlugin10metaObjectEv@Qt_6 6.6.0
 _ZNK19QQmlExtensionPlugin7baseUrlEv@Qt_6 6.6.0
 _ZNK21QQmlApplicationEngine10metaObjectEv@Qt_6 6.6.0
 _ZNK21QQmlApplicationEngine11rootObjectsEv@Qt_6 6.6.0
 _ZNK21QQmlImageProviderBase10metaObjectEv@Qt_6 6.6.0
 _ZNK24QQmlIncubationController21incubatingObjectCountEv@Qt_6 6.6.0
 _ZNK24QQmlIncubationController6engineEv@Qt_6 6.6.0
 _ZNK25QQmlEngineExtensionPlugin10metaObjectEv@Qt_6 6.6.0
 _ZNK6QQmlJS3AST14ExpressionNode21containsOptionalChainEv@Qt_6 6.6.0
 _ZNK6QQmlJS3AST19FormalParameterList10boundNamesEv@Qt_6 6.6.0
 _ZNK6QQmlJS3AST19FormalParameterList7formalsEv@Qt_6 6.6.0
 _ZNK6QQmlJS3AST20UiPropertyAttributes18lastSourceLocationEv@Qt_6 6.6.0
 _ZNK6QQmlJS3AST20UiPropertyAttributes19firstSourceLocationEv@Qt_6 6.6.0
 _ZNK6QQmlJS3AST26NumericLiteralPropertyName8asStringEv@Qt_6 6.6.0
 _ZNK6QQmlJS3AST4Type8toStringEP7QString@Qt_6 6.6.0
 _ZNK6QQmlJS3AST4Type8toStringEv@Qt_6 6.6.0
 _ZNK6QQmlJS5Lexer12errorMessageEv@Qt_6 6.6.0
 _ZNK6QQmlJS5Lexer14prevTerminatorEv@Qt_6 6.6.0
 _ZNK6QQmlJS5Lexer16isLineTerminatorEv@Qt_6 6.6.0
 _ZNK6QQmlJS5Lexer19followsClosingBraceEv@Qt_6 6.6.0
 _ZNK6QQmlJS5Lexer24isLineTerminatorSequenceEv@Qt_6 6.6.0
 _ZNK6QQmlJS5Lexer27canInsertAutomaticSemicolonEi@Qt_6 6.6.0
 _ZNK6QQmlJS5Lexer4codeEv@Qt_6 6.6.0
 _ZNK6QQmlJS5Lexer5stateEv@Qt_6 6.6.0
 _ZNK6QQmlJS5Lexer7qmlModeEv@Qt_6 6.6.0
 _ZNK6QQmlJS5Lexer9errorCodeEv@Qt_6 6.6.0
 _ZNK6QQmlJS5Lexer9tokenTextEv@Qt_6 6.6.0
 _ZNK8QJSValue10isCallableEv@Qt_6 6.6.0
 _ZNK8QJSValue10toDateTimeEv@Qt_6 6.6.0
 _ZNK8QJSValue11hasPropertyERK7QString@Qt_6 6.6.0
 _ZNK8QJSValue11isUndefinedEv@Qt_6 6.6.0
 _ZNK8QJSValue11toPrimitiveEv@Qt_6 6.6.0
 _ZNK8QJSValue13isQMetaObjectEv@Qt_6 6.6.0
 _ZNK8QJSValue13toQMetaObjectEv@Qt_6 6.6.0
 _ZNK8QJSValue14hasOwnPropertyERK7QString@Qt_6 6.6.0
 _ZNK8QJSValue14strictlyEqualsERKS_@Qt_6 6.6.0
 _ZNK8QJSValue16callWithInstanceERKS_RK5QListIS_E@Qt_6 6.6.0
 _ZNK8QJSValue17callAsConstructorERK5QListIS_E@Qt_6 6.6.0
 _ZNK8QJSValue4callERK5QListIS_E@Qt_6 6.6.0
 _ZNK8QJSValue5isUrlEv@Qt_6 6.6.0
 _ZNK8QJSValue5toIntEv@Qt_6 6.6.0
 _ZNK8QJSValue6equalsERKS_@Qt_6 6.6.0
 _ZNK8QJSValue6isBoolEv@Qt_6 6.6.0
 _ZNK8QJSValue6isDateEv@Qt_6 6.6.0
 _ZNK8QJSValue6isNullEv@Qt_6 6.6.0
 _ZNK8QJSValue6toBoolEv@Qt_6 6.6.0
 _ZNK8QJSValue6toUIntEv@Qt_6 6.6.0
 _ZNK8QJSValue7isArrayEv@Qt_6 6.6.0
 _ZNK8QJSValue7isErrorEv@Qt_6 6.6.0
 _ZNK8QJSValue8isNumberEv@Qt_6 6.6.0
 _ZNK8QJSValue8isObjectEv@Qt_6 6.6.0
 _ZNK8QJSValue8isRegExpEv@Qt_6 6.6.0
 _ZNK8QJSValue8isStringEv@Qt_6 6.6.0
 _ZNK8QJSValue8propertyERK7QString@Qt_6 6.6.0
 _ZNK8QJSValue8propertyEj@Qt_6 6.6.0
 _ZNK8QJSValue8toNumberEv@Qt_6 6.6.0
 _ZNK8QJSValue8toStringEv@Qt_6 6.6.0
 _ZNK8QJSValue9errorTypeEv@Qt_6 6.6.0
 _ZNK8QJSValue9isQObjectEv@Qt_6 6.6.0
 _ZNK8QJSValue9isVariantEv@Qt_6 6.6.0
 _ZNK8QJSValue9prototypeEv@Qt_6 6.6.0
 _ZNK8QJSValue9toQObjectEv@Qt_6 6.6.0
 _ZNK8QJSValue9toVariantENS_24ObjectConversionBehaviorE@Qt_6 6.6.0
 _ZNK8QJSValue9toVariantEv@Qt_6 6.6.0
 _ZNK8QQmlFile13dataByteArrayEv@Qt_6 6.6.0
 _ZNK8QQmlFile3urlEv@Qt_6 6.6.0
 _ZNK8QQmlFile4dataEv@Qt_6 6.6.0
 _ZNK8QQmlFile4sizeEv@Qt_6 6.6.0
 _ZNK8QQmlFile5errorEv@Qt_6 6.6.0
 _ZNK8QQmlFile6isNullEv@Qt_6 6.6.0
 _ZNK8QQmlFile6statusEv@Qt_6 6.6.0
 _ZNK8QQmlFile7isErrorEv@Qt_6 6.6.0
 _ZNK8QQmlFile7isReadyEv@Qt_6 6.6.0
 _ZNK8QQmlFile9isLoadingEv@Qt_6 6.6.0
 _ZNK9QJSEngine10metaObjectEv@Qt_6 6.6.0
 _ZNK9QJSEngine10uiLanguageEv@Qt_6 6.6.0
 _ZNK9QJSEngine12globalObjectEv@Qt_6 6.6.0
 _ZNK9QJSEngine13isInterruptedEv@Qt_6 6.6.0
 _ZNK9QJSEngine8hasErrorEv@Qt_6 6.6.0
 _ZNK9QQmlError11descriptionEv@Qt_6 6.6.0
 _ZNK9QQmlError11messageTypeEv@Qt_6 6.6.0
 _ZNK9QQmlError3urlEv@Qt_6 6.6.0
 _ZNK9QQmlError4lineEv@Qt_6 6.6.0
 _ZNK9QQmlError6columnEv@Qt_6 6.6.0
 _ZNK9QQmlError6objectEv@Qt_6 6.6.0
 _ZNK9QQmlError7isValidEv@Qt_6 6.6.0
 _ZNK9QQmlError8toStringEv@Qt_6 6.6.0
 _ZSt19piecewise_construct@Qt_6 6.6.0
 _ZTI10QQmlEngine@Qt_6 6.6.0
 _ZTI11QQmlContext@Qt_6 6.6.0
 _ZTI13QQmlComponent@Qt_6 6.6.0
 _ZTI13QQmlIncubator@Qt_6 6.6.0
 _ZTI14QQmlExpression@Qt_6 6.6.0
 _ZTI15QQmlPropertyMap@Qt_6 6.6.0
 _ZTI16QQmlFileSelector@Qt_6 6.6.0
 _ZTI16QQmlParserStatus@Qt_6 6.6.0
 _ZTI17QPropertyObserver@Qt_6 6.6.0
 _ZTI19QQmlExtensionPlugin@Qt_6 6.6.0
 _ZTI21QQmlApplicationEngine@Qt_6 6.6.0
 _ZTI21QQmlImageProviderBase@Qt_6 6.6.0
 _ZTI22QQmlExtensionInterface@Qt_6 6.6.0
 _ZTI23QQmlPropertyValueSource@Qt_6 6.6.0
 _ZTI24QQmlIncubationController@Qt_6 6.6.0
 _ZTI25QQmlEngineExtensionPlugin@Qt_6 6.6.0
 _ZTI26QQmlAbstractUrlInterceptor@Qt_6 6.6.0
 _ZTI27QQmlTypesExtensionInterface@Qt_6 6.6.0
 _ZTI28QQmlEngineExtensionInterface@Qt_6 6.6.0
 _ZTI31QQmlNetworkAccessManagerFactory@Qt_6 6.6.0
 _ZTI9QJSEngine@Qt_6 6.6.0
 _ZTIFP7QObjectP10QQmlEngineP9QJSEngineE@Qt_6 6.6.0
 _ZTIN6QQmlJS10DirectivesE@Qt_6 6.6.0
 _ZTIN6QQmlJS3AST10CaseClauseE@Qt_6 6.6.0
 _ZTIN6QQmlJS3AST10ExpressionE@Qt_6 6.6.0
 _ZTIN6QQmlJS3AST10FromClauseE@Qt_6 6.6.0
 _ZTIN6QQmlJS3AST10UiRequiredE@Qt_6 6.6.0
 _ZTIN6QQmlJS3AST11BaseVisitorE@Qt_6 6.6.0
 _ZTIN6QQmlJS3AST11CaseClausesE@Qt_6 6.6.0
 _ZTIN6QQmlJS3AST11ExportsListE@Qt_6 6.6.0
 _ZTIN6QQmlJS3AST11IfStatementE@Qt_6 6.6.0
 _ZTIN6QQmlJS3AST11ImportsListE@Qt_6 6.6.0
 _ZTIN6QQmlJS3AST11TrueLiteralE@Qt_6 6.6.0
 _ZTIN6QQmlJS3AST12ArgumentListE@Qt_6 6.6.0
 _ZTIN6QQmlJS3AST12ArrayPatternE@Qt_6 6.6.0
 _ZTIN6QQmlJS3AST12ExportClauseE@Qt_6 6.6.0
 _ZTIN6QQmlJS3AST12FalseLiteralE@Qt_6 6.6.0
 _ZTIN6QQmlJS3AST12ForStatementE@Qt_6 6.6.0
 _ZTIN6QQmlJS3AST12ImportClauseE@Qt_6 6.6.0
 _ZTIN6QQmlJS3AST12NamedImportsE@Qt_6 6.6.0
 _ZTIN6QQmlJS3AST12PropertyNameE@Qt_6 6.6.0
 _ZTIN6QQmlJS3AST12SuperLiteralE@Qt_6 6.6.0
 _ZTIN6QQmlJS3AST12TryStatementE@Qt_6 6.6.0
 _ZTIN6QQmlJS3AST12UiAnnotationE@Qt_6 6.6.0
 _ZTIN6QQmlJS3AST13DefaultClauseE@Qt_6 6.6.0
 _ZTIN6QQmlJS3AST13NewExpressionE@Qt_6 6.6.0
 _ZTIN6QQmlJS3AST13NotExpressionE@Qt_6 6.6.0
 _ZTIN6QQmlJS3AST13ObjectPatternE@Qt_6 6.6.0
 _ZTIN6QQmlJS3AST13RegExpLiteralE@Qt_6 6.6.0
 _ZTIN6QQmlJS3AST13StatementListE@Qt_6 6.6.0
 _ZTIN6QQmlJS3AST13StringLiteralE@Qt_6 6.6.0
 _ZTIN6QQmlJS3AST13UiQualifiedIdE@Qt_6 6.6.0
 _ZTIN6QQmlJS3AST13WithStatementE@Qt_6 6.6.0
 _ZTIN6QQmlJS3AST14BreakStatementE@Qt_6 6.6.0
 _ZTIN6QQmlJS3AST14CallExpressionE@Qt_6 6.6.0
 _ZTIN6QQmlJS3AST14EmptyStatementE@Qt_6 6.6.0
 _ZTIN6QQmlJS3AST14ExpressionNodeE@Qt_6 6.6.0
 _ZTIN6QQmlJS3AST14NullExpressionE@Qt_6 6.6.0
 _ZTIN6QQmlJS3AST14NumericLiteralE@Qt_6 6.6.0
 _ZTIN6QQmlJS3AST14PatternElementE@Qt_6 6.6.0
 _ZTIN6QQmlJS3AST14TaggedTemplateE@Qt_6 6.6.0
 _ZTIN6QQmlJS3AST14ThisExpressionE@Qt_6 6.6.0
 _ZTIN6QQmlJS3AST14ThrowStatementE@Qt_6 6.6.0
 _ZTIN6QQmlJS3AST14TypeAnnotationE@Qt_6 6.6.0
 _ZTIN6QQmlJS3AST14TypeExpressionE@Qt_6 6.6.0
 _ZTIN6QQmlJS3AST14UiArrayBindingE@Qt_6 6.6.0
 _ZTIN6QQmlJS3AST14UiObjectMemberE@Qt_6 6.6.0
 _ZTIN6QQmlJS3AST14UiPublicMemberE@Qt_6 6.6.0
 _ZTIN6QQmlJS3AST14VoidExpressionE@Qt_6 6.6.0
 _ZTIN6QQmlJS3AST14WhileStatementE@Qt_6 6.6.0
 _ZTIN6QQmlJS3AST15ExportSpecifierE@Qt_6 6.6.0
 _ZTIN6QQmlJS3AST15ImportSpecifierE@Qt_6 6.6.0
 _ZTIN6QQmlJS3AST15NameSpaceImportE@Qt_6 6.6.0
 _ZTIN6QQmlJS3AST15PatternPropertyE@Qt_6 6.6.0
 _ZTIN6QQmlJS3AST15ReturnStatementE@Qt_6 6.6.0
 _ZTIN6QQmlJS3AST15SwitchStatementE@Qt_6 6.6.0
 _ZTIN6QQmlJS3AST15TemplateLiteralE@Qt_6 6.6.0
 _ZTIN6QQmlJS3AST15TildeExpressionE@Qt_6 6.6.0
 _ZTIN6QQmlJS3AST15UiObjectBindingE@Qt_6 6.6.0
 _ZTIN6QQmlJS3AST15UiParameterListE@Qt_6 6.6.0
 _ZTIN6QQmlJS3AST15UiScriptBindingE@Qt_6 6.6.0
 _ZTIN6QQmlJS3AST15UiSourceElementE@Qt_6 6.6.0
 _ZTIN6QQmlJS3AST15YieldExpressionE@Qt_6 6.6.0
 _ZTIN6QQmlJS3AST16BinaryExpressionE@Qt_6 6.6.0
 _ZTIN6QQmlJS3AST16ClassDeclarationE@Qt_6 6.6.0
 _ZTIN6QQmlJS3AST16ClassElementListE@Qt_6 6.6.0
 _ZTIN6QQmlJS3AST16DeleteExpressionE@Qt_6 6.6.0
 _ZTIN6QQmlJS3AST16DoWhileStatementE@Qt_6 6.6.0
 _ZTIN6QQmlJS3AST16ForEachStatementE@Qt_6 6.6.0
 _ZTIN6QQmlJS3AST16NestedExpressionE@Qt_6 6.6.0
 _ZTIN6QQmlJS3AST16TypeOfExpressionE@Qt_6 6.6.0
 _ZTIN6QQmlJS3AST16UiAnnotationListE@Qt_6 6.6.0
 _ZTIN6QQmlJS3AST16UiEnumMemberListE@Qt_6 6.6.0
 _ZTIN6QQmlJS3AST16UiHeaderItemListE@Qt_6 6.6.0
 _ZTIN6QQmlJS3AST17ContinueStatementE@Qt_6 6.6.0
 _ZTIN6QQmlJS3AST17DebuggerStatementE@Qt_6 6.6.0
 _ZTIN6QQmlJS3AST17ExportDeclarationE@Qt_6 6.6.0
 _ZTIN6QQmlJS3AST17ImportDeclarationE@Qt_6 6.6.0
 _ZTIN6QQmlJS3AST17LabelledStatementE@Qt_6 6.6.0
 _ZTIN6QQmlJS3AST17UiArrayMemberListE@Qt_6 6.6.0
 _ZTIN6QQmlJS3AST17UiEnumDeclarationE@Qt_6 6.6.0
 _ZTIN6QQmlJS3AST17UiInlineComponentE@Qt_6 6.6.0
 _ZTIN6QQmlJS3AST17UiPragmaValueListE@Qt_6 6.6.0
 _ZTIN6QQmlJS3AST17VariableStatementE@Qt_6 6.6.0
 _ZTIN6QQmlJS3AST18PatternElementListE@Qt_6 6.6.0
 _ZTIN6QQmlJS3AST18UiObjectDefinitionE@Qt_6 6.6.0
 _ZTIN6QQmlJS3AST18UiObjectMemberListE@Qt_6 6.6.0
 _ZTIN6QQmlJS3AST18UiVersionSpecifierE@Qt_6 6.6.0
 _ZTIN6QQmlJS3AST19ExpressionStatementE@Qt_6 6.6.0
 _ZTIN6QQmlJS3AST19FormalParameterListE@Qt_6 6.6.0
 _ZTIN6QQmlJS3AST19FunctionDeclarationE@Qt_6 6.6.0
 _ZTIN6QQmlJS3AST19NewMemberExpressionE@Qt_6 6.6.0
 _ZTIN6QQmlJS3AST19PatternPropertyListE@Qt_6 6.6.0
 _ZTIN6QQmlJS3AST19UiObjectInitializerE@Qt_6 6.6.0
 _ZTIN6QQmlJS3AST19UnaryPlusExpressionE@Qt_6 6.6.0
 _ZTIN6QQmlJS3AST20ComputedPropertyNameE@Qt_6 6.6.0
 _ZTIN6QQmlJS3AST20IdentifierExpressionE@Qt_6 6.6.0
 _ZTIN6QQmlJS3AST20UiPropertyAttributesE@Qt_6 6.6.0
 _ZTIN6QQmlJS3AST20UnaryMinusExpressionE@Qt_6 6.6.0
 _ZTIN6QQmlJS3AST21ArrayMemberExpressionE@Qt_6 6.6.0
 _ZTIN6QQmlJS3AST21ConditionalExpressionE@Qt_6 6.6.0
 _ZTIN6QQmlJS3AST21FieldMemberExpressionE@Qt_6 6.6.0
 _ZTIN6QQmlJS3AST22IdentifierPropertyNameE@Qt_6 6.6.0
 _ZTIN6QQmlJS3AST22LeftHandSideExpressionE@Qt_6 6.6.0
 _ZTIN6QQmlJS3AST22PreDecrementExpressionE@Qt_6 6.6.0
 _ZTIN6QQmlJS3AST22PreIncrementExpressionE@Qt_6 6.6.0
 _ZTIN6QQmlJS3AST23PostDecrementExpressionE@Qt_6 6.6.0
 _ZTIN6QQmlJS3AST23PostIncrementExpressionE@Qt_6 6.6.0
 _ZTIN6QQmlJS3AST23VariableDeclarationListE@Qt_6 6.6.0
 _ZTIN6QQmlJS3AST25StringLiteralPropertyNameE@Qt_6 6.6.0
 _ZTIN6QQmlJS3AST26NumericLiteralPropertyNameE@Qt_6 6.6.0
 _ZTIN6QQmlJS3AST4TypeE@Qt_6 6.6.0
 _ZTIN6QQmlJS3AST5CatchE@Qt_6 6.6.0
 _ZTIN6QQmlJS3AST7ElisionE@Qt_6 6.6.0
 _ZTIN6QQmlJS3AST7FinallyE@Qt_6 6.6.0
 _ZTIN6QQmlJS3AST7PatternE@Qt_6 6.6.0
 _ZTIN6QQmlJS3AST7ProgramE@Qt_6 6.6.0
 _ZTIN6QQmlJS3AST7VisitorE@Qt_6 6.6.0
 _ZTIN6QQmlJS3AST8ESModuleE@Qt_6 6.6.0
 _ZTIN6QQmlJS3AST8UiImportE@Qt_6 6.6.0
 _ZTIN6QQmlJS3AST8UiPragmaE@Qt_6 6.6.0
 _ZTIN6QQmlJS3AST9CaseBlockE@Qt_6 6.6.0
 _ZTIN6QQmlJS3AST9StatementE@Qt_6 6.6.0
 _ZTIN6QQmlJS3AST9UiProgramE@Qt_6 6.6.0
 (arch=armel riscv64)_ZTIN9__gnu_cxx7__mutexE@Qt_6 6.6.0
 _ZTIPFP7QObjectP10QQmlEngineP9QJSEngineE@Qt_6 6.6.0
 (arch=armel riscv64)_ZTISt11_Mutex_baseILN9__gnu_cxx12_Lock_policyE1EE@Qt_6 6.6.0
 (arch=!armel !riscv64)_ZTISt11_Mutex_baseILN9__gnu_cxx12_Lock_policyE2EE@Qt_6 6.6.0
 (arch=armel riscv64)_ZTISt16_Sp_counted_baseILN9__gnu_cxx12_Lock_policyE1EE@Qt_6 6.6.0
 (arch=!armel !riscv64)_ZTISt16_Sp_counted_baseILN9__gnu_cxx12_Lock_policyE2EE@Qt_6 6.6.0
 (arch=armel armhf)_ZTISt19_Sp_make_shared_tag@Qt_6 6.6.0
 _ZTIZN9QMetaType17registerConverterI5QListI12QEasingCurveE9QIterableI13QMetaSequenceEN9QtPrivate33QSequentialIterableConvertFunctorIS3_EEEEbT1_EUlPKvPvE_@Qt_6 6.6.0
 _ZTIZN9QMetaType17registerConverterI5QListI12QQmlPropertyE9QIterableI13QMetaSequenceEN9QtPrivate33QSequentialIterableConvertFunctorIS3_EEEEbT1_EUlPKvPvE_@Qt_6 6.6.0
 _ZTIZN9QMetaType17registerConverterI5QListI16QQmlScriptStringE9QIterableI13QMetaSequenceEN9QtPrivate33QSequentialIterableConvertFunctorIS3_EEEEbT1_EUlPKvPvE_@Qt_6 6.6.0
 _ZTIZN9QMetaType17registerConverterI5QListI18QRegularExpressionE9QIterableI13QMetaSequenceEN9QtPrivate33QSequentialIterableConvertFunctorIS3_EEEEbT1_EUlPKvPvE_@Qt_6 6.6.0
 _ZTIZN9QMetaType17registerConverterI5QListI4QMapI7QString8QVariantEE9QIterableI13QMetaSequenceEN9QtPrivate33QSequentialIterableConvertFunctorIS6_EEEEbT1_EUlPKvPvE_@Qt_6 6.6.0
 _ZTIZN9QMetaType17registerConverterI5QListI4QUrlE9QIterableI13QMetaSequenceEN9QtPrivate33QSequentialIterableConvertFunctorIS3_EEEEbT1_EUlPKvPvE_@Qt_6 6.6.0
 _ZTIZN9QMetaType17registerConverterI5QListI5QCharE9QIterableI13QMetaSequenceEN9QtPrivate33QSequentialIterableConvertFunctorIS3_EEEEbT1_EUlPKvPvE_@Qt_6 6.6.0
 _ZTIZN9QMetaType17registerConverterI5QListI5QDateE9QIterableI13QMetaSequenceEN9QtPrivate33QSequentialIterableConvertFunctorIS3_EEEEbT1_EUlPKvPvE_@Qt_6 6.6.0
 _ZTIZN9QMetaType17registerConverterI5QListI5QRectE9QIterableI13QMetaSequenceEN9QtPrivate33QSequentialIterableConvertFunctorIS3_EEEEbT1_EUlPKvPvE_@Qt_6 6.6.0
 _ZTIZN9QMetaType17registerConverterI5QListI5QSizeE9QIterableI13QMetaSequenceEN9QtPrivate33QSequentialIterableConvertFunctorIS3_EEEEbT1_EUlPKvPvE_@Qt_6 6.6.0
 _ZTIZN9QMetaType17registerConverterI5QListI5QTimeE9QIterableI13QMetaSequenceEN9QtPrivate33QSequentialIterableConvertFunctorIS3_EEEEbT1_EUlPKvPvE_@Qt_6 6.6.0
 _ZTIZN9QMetaType17registerConverterI5QListI6QPointE9QIterableI13QMetaSequenceEN9QtPrivate33QSequentialIterableConvertFunctorIS3_EEEEbT1_EUlPKvPvE_@Qt_6 6.6.0
 _ZTIZN9QMetaType17registerConverterI5QListI6QRectFE9QIterableI13QMetaSequenceEN9QtPrivate33QSequentialIterableConvertFunctorIS3_EEEEbT1_EUlPKvPvE_@Qt_6 6.6.0
 _ZTIZN9QMetaType17registerConverterI5QListI6QSizeFE9QIterableI13QMetaSequenceEN9QtPrivate33QSequentialIterableConvertFunctorIS3_EEEEbT1_EUlPKvPvE_@Qt_6 6.6.0
 _ZTIZN9QMetaType17registerConverterI5QListI7QPointFE9QIterableI13QMetaSequenceEN9QtPrivate33QSequentialIterableConvertFunctorIS3_EEEEbT1_EUlPKvPvE_@Qt_6 6.6.0
 _ZTIZN9QMetaType17registerConverterI5QListI8QJSValueE9QIterableI13QMetaSequenceEN9QtPrivate33QSequentialIterableConvertFunctorIS3_EEEEbT1_EUlPKvPvE_@Qt_6 6.6.0
 _ZTIZN9QMetaType17registerConverterI5QListI9QDateTimeE9QIterableI13QMetaSequenceEN9QtPrivate33QSequentialIterableConvertFunctorIS3_EEEEbT1_EUlPKvPvE_@Qt_6 6.6.0
 _ZTIZN9QMetaType17registerConverterI5QListIDnE9QIterableI13QMetaSequenceEN9QtPrivate33QSequentialIterableConvertFunctorIS2_EEEEbT1_EUlPKvPvE_@Qt_6 6.6.0
 _ZTIZN9QMetaType17registerConverterI5QListIP7QObjectE9QIterableI13QMetaSequenceEN9QtPrivate33QSequentialIterableConvertFunctorIS4_EEEEbT1_EUlPKvPvE_@Qt_6 6.6.0
 _ZTIZN9QMetaType17registerConverterI5QListIaE9QIterableI13QMetaSequenceEN9QtPrivate33QSequentialIterableConvertFunctorIS2_EEEEbT1_EUlPKvPvE_@Qt_6 6.6.0
 _ZTIZN9QMetaType17registerConverterI5QListIbE9QIterableI13QMetaSequenceEN9QtPrivate33QSequentialIterableConvertFunctorIS2_EEEEbT1_EUlPKvPvE_@Qt_6 6.6.0
 _ZTIZN9QMetaType17registerConverterI5QListIdE9QIterableI13QMetaSequenceEN9QtPrivate33QSequentialIterableConvertFunctorIS2_EEEEbT1_EUlPKvPvE_@Qt_6 6.6.0
 _ZTIZN9QMetaType17registerConverterI5QListIfE9QIterableI13QMetaSequenceEN9QtPrivate33QSequentialIterableConvertFunctorIS2_EEEEbT1_EUlPKvPvE_@Qt_6 6.6.0
 _ZTIZN9QMetaType17registerConverterI5QListIhE9QIterableI13QMetaSequenceEN9QtPrivate33QSequentialIterableConvertFunctorIS2_EEEEbT1_EUlPKvPvE_@Qt_6 6.6.0
 _ZTIZN9QMetaType17registerConverterI5QListIiE9QIterableI13QMetaSequenceEN9QtPrivate33QSequentialIterableConvertFunctorIS2_EEEEbT1_EUlPKvPvE_@Qt_6 6.6.0
 _ZTIZN9QMetaType17registerConverterI5QListIjE9QIterableI13QMetaSequenceEN9QtPrivate33QSequentialIterableConvertFunctorIS2_EEEEbT1_EUlPKvPvE_@Qt_6 6.6.0
 _ZTIZN9QMetaType17registerConverterI5QListIsE9QIterableI13QMetaSequenceEN9QtPrivate33QSequentialIterableConvertFunctorIS2_EEEEbT1_EUlPKvPvE_@Qt_6 6.6.0
 _ZTIZN9QMetaType17registerConverterI5QListItE9QIterableI13QMetaSequenceEN9QtPrivate33QSequentialIterableConvertFunctorIS2_EEEEbT1_EUlPKvPvE_@Qt_6 6.6.0
 _ZTIZN9QMetaType17registerConverterI5QListIxE9QIterableI13QMetaSequenceEN9QtPrivate33QSequentialIterableConvertFunctorIS2_EEEEbT1_EUlPKvPvE_@Qt_6 6.6.0
 _ZTIZN9QMetaType17registerConverterI5QListIyE9QIterableI13QMetaSequenceEN9QtPrivate33QSequentialIterableConvertFunctorIS2_EEEEbT1_EUlPKvPvE_@Qt_6 6.6.0
 _ZTIZN9QMetaType17registerConverterI8QJSValue19QSequentialIterablePFS2_RKS1_EEEbT1_EUlPKvPvE_@Qt_6 6.6.0
 _ZTIZN9QMetaType17registerConverterI8QJSValue4QMapI7QString8QVariantEPFS5_RKS1_EEEbT1_EUlPKvPvE_@Qt_6 6.6.0
 _ZTIZN9QMetaType17registerConverterI8QJSValue5QListI7QStringEPFS4_RKS1_EEEbT1_EUlPKvPvE_@Qt_6 6.6.0
 _ZTIZN9QMetaType17registerConverterI8QJSValue5QListI8QVariantEPFS4_RKS1_EEEbT1_EUlPKvPvE_@Qt_6 6.6.0
 _ZTIZN9QMetaType17registerConverterISt6vectorI11QModelIndexSaIS2_EE9QIterableI13QMetaSequenceEN9QtPrivate33QSequentialIterableConvertFunctorIS4_EEEEbT1_EUlPKvPvE_@Qt_6 6.6.0
 _ZTIZN9QMetaType17registerConverterISt6vectorI4QUrlSaIS2_EE9QIterableI13QMetaSequenceEN9QtPrivate33QSequentialIterableConvertFunctorIS4_EEEEbT1_EUlPKvPvE_@Qt_6 6.6.0
 _ZTIZN9QMetaType17registerConverterISt6vectorI7QStringSaIS2_EE9QIterableI13QMetaSequenceEN9QtPrivate33QSequentialIterableConvertFunctorIS4_EEEEbT1_EUlPKvPvE_@Qt_6 6.6.0
 _ZTIZN9QMetaType17registerConverterISt6vectorIbSaIbEE9QIterableI13QMetaSequenceEN9QtPrivate33QSequentialIterableConvertFunctorIS3_EEEEbT1_EUlPKvPvE_@Qt_6 6.6.0
 _ZTIZN9QMetaType17registerConverterISt6vectorIdSaIdEE9QIterableI13QMetaSequenceEN9QtPrivate33QSequentialIterableConvertFunctorIS3_EEEEbT1_EUlPKvPvE_@Qt_6 6.6.0
 _ZTIZN9QMetaType17registerConverterISt6vectorIfSaIfEE9QIterableI13QMetaSequenceEN9QtPrivate33QSequentialIterableConvertFunctorIS3_EEEEbT1_EUlPKvPvE_@Qt_6 6.6.0
 _ZTIZN9QMetaType17registerConverterISt6vectorIiSaIiEE9QIterableI13QMetaSequenceEN9QtPrivate33QSequentialIterableConvertFunctorIS3_EEEEbT1_EUlPKvPvE_@Qt_6 6.6.0
 _ZTIZN9QMetaType19registerMutableViewI5QListI12QEasingCurveE9QIterableI13QMetaSequenceEN9QtPrivate37QSequentialIterableMutableViewFunctorIS3_EEEEbT1_EUlPvSB_E_@Qt_6 6.6.0
 _ZTIZN9QMetaType19registerMutableViewI5QListI12QQmlPropertyE9QIterableI13QMetaSequenceEN9QtPrivate37QSequentialIterableMutableViewFunctorIS3_EEEEbT1_EUlPvSB_E_@Qt_6 6.6.0
 _ZTIZN9QMetaType19registerMutableViewI5QListI16QQmlScriptStringE9QIterableI13QMetaSequenceEN9QtPrivate37QSequentialIterableMutableViewFunctorIS3_EEEEbT1_EUlPvSB_E_@Qt_6 6.6.0
 _ZTIZN9QMetaType19registerMutableViewI5QListI18QRegularExpressionE9QIterableI13QMetaSequenceEN9QtPrivate37QSequentialIterableMutableViewFunctorIS3_EEEEbT1_EUlPvSB_E_@Qt_6 6.6.0
 _ZTIZN9QMetaType19registerMutableViewI5QListI4QMapI7QString8QVariantEE9QIterableI13QMetaSequenceEN9QtPrivate37QSequentialIterableMutableViewFunctorIS6_EEEEbT1_EUlPvSE_E_@Qt_6 6.6.0
 _ZTIZN9QMetaType19registerMutableViewI5QListI4QUrlE9QIterableI13QMetaSequenceEN9QtPrivate37QSequentialIterableMutableViewFunctorIS3_EEEEbT1_EUlPvSB_E_@Qt_6 6.6.0
 _ZTIZN9QMetaType19registerMutableViewI5QListI5QCharE9QIterableI13QMetaSequenceEN9QtPrivate37QSequentialIterableMutableViewFunctorIS3_EEEEbT1_EUlPvSB_E_@Qt_6 6.6.0
 _ZTIZN9QMetaType19registerMutableViewI5QListI5QDateE9QIterableI13QMetaSequenceEN9QtPrivate37QSequentialIterableMutableViewFunctorIS3_EEEEbT1_EUlPvSB_E_@Qt_6 6.6.0
 _ZTIZN9QMetaType19registerMutableViewI5QListI5QRectE9QIterableI13QMetaSequenceEN9QtPrivate37QSequentialIterableMutableViewFunctorIS3_EEEEbT1_EUlPvSB_E_@Qt_6 6.6.0
 _ZTIZN9QMetaType19registerMutableViewI5QListI5QSizeE9QIterableI13QMetaSequenceEN9QtPrivate37QSequentialIterableMutableViewFunctorIS3_EEEEbT1_EUlPvSB_E_@Qt_6 6.6.0
 _ZTIZN9QMetaType19registerMutableViewI5QListI5QTimeE9QIterableI13QMetaSequenceEN9QtPrivate37QSequentialIterableMutableViewFunctorIS3_EEEEbT1_EUlPvSB_E_@Qt_6 6.6.0
 _ZTIZN9QMetaType19registerMutableViewI5QListI6QPointE9QIterableI13QMetaSequenceEN9QtPrivate37QSequentialIterableMutableViewFunctorIS3_EEEEbT1_EUlPvSB_E_@Qt_6 6.6.0
 _ZTIZN9QMetaType19registerMutableViewI5QListI6QRectFE9QIterableI13QMetaSequenceEN9QtPrivate37QSequentialIterableMutableViewFunctorIS3_EEEEbT1_EUlPvSB_E_@Qt_6 6.6.0
 _ZTIZN9QMetaType19registerMutableViewI5QListI6QSizeFE9QIterableI13QMetaSequenceEN9QtPrivate37QSequentialIterableMutableViewFunctorIS3_EEEEbT1_EUlPvSB_E_@Qt_6 6.6.0
 _ZTIZN9QMetaType19registerMutableViewI5QListI7QPointFE9QIterableI13QMetaSequenceEN9QtPrivate37QSequentialIterableMutableViewFunctorIS3_EEEEbT1_EUlPvSB_E_@Qt_6 6.6.0
 _ZTIZN9QMetaType19registerMutableViewI5QListI8QJSValueE9QIterableI13QMetaSequenceEN9QtPrivate37QSequentialIterableMutableViewFunctorIS3_EEEEbT1_EUlPvSB_E_@Qt_6 6.6.0
 _ZTIZN9QMetaType19registerMutableViewI5QListI9QDateTimeE9QIterableI13QMetaSequenceEN9QtPrivate37QSequentialIterableMutableViewFunctorIS3_EEEEbT1_EUlPvSB_E_@Qt_6 6.6.0
 _ZTIZN9QMetaType19registerMutableViewI5QListIDnE9QIterableI13QMetaSequenceEN9QtPrivate37QSequentialIterableMutableViewFunctorIS2_EEEEbT1_EUlPvSA_E_@Qt_6 6.6.0
 _ZTIZN9QMetaType19registerMutableViewI5QListIP7QObjectE9QIterableI13QMetaSequenceEN9QtPrivate37QSequentialIterableMutableViewFunctorIS4_EEEEbT1_EUlPvSC_E_@Qt_6 6.6.0
 _ZTIZN9QMetaType19registerMutableViewI5QListIaE9QIterableI13QMetaSequenceEN9QtPrivate37QSequentialIterableMutableViewFunctorIS2_EEEEbT1_EUlPvSA_E_@Qt_6 6.6.0
 _ZTIZN9QMetaType19registerMutableViewI5QListIbE9QIterableI13QMetaSequenceEN9QtPrivate37QSequentialIterableMutableViewFunctorIS2_EEEEbT1_EUlPvSA_E_@Qt_6 6.6.0
 _ZTIZN9QMetaType19registerMutableViewI5QListIdE9QIterableI13QMetaSequenceEN9QtPrivate37QSequentialIterableMutableViewFunctorIS2_EEEEbT1_EUlPvSA_E_@Qt_6 6.6.0
 _ZTIZN9QMetaType19registerMutableViewI5QListIfE9QIterableI13QMetaSequenceEN9QtPrivate37QSequentialIterableMutableViewFunctorIS2_EEEEbT1_EUlPvSA_E_@Qt_6 6.6.0
 _ZTIZN9QMetaType19registerMutableViewI5QListIhE9QIterableI13QMetaSequenceEN9QtPrivate37QSequentialIterableMutableViewFunctorIS2_EEEEbT1_EUlPvSA_E_@Qt_6 6.6.0
 _ZTIZN9QMetaType19registerMutableViewI5QListIiE9QIterableI13QMetaSequenceEN9QtPrivate37QSequentialIterableMutableViewFunctorIS2_EEEEbT1_EUlPvSA_E_@Qt_6 6.6.0
 _ZTIZN9QMetaType19registerMutableViewI5QListIjE9QIterableI13QMetaSequenceEN9QtPrivate37QSequentialIterableMutableViewFunctorIS2_EEEEbT1_EUlPvSA_E_@Qt_6 6.6.0
 _ZTIZN9QMetaType19registerMutableViewI5QListIsE9QIterableI13QMetaSequenceEN9QtPrivate37QSequentialIterableMutableViewFunctorIS2_EEEEbT1_EUlPvSA_E_@Qt_6 6.6.0
 _ZTIZN9QMetaType19registerMutableViewI5QListItE9QIterableI13QMetaSequenceEN9QtPrivate37QSequentialIterableMutableViewFunctorIS2_EEEEbT1_EUlPvSA_E_@Qt_6 6.6.0
 _ZTIZN9QMetaType19registerMutableViewI5QListIxE9QIterableI13QMetaSequenceEN9QtPrivate37QSequentialIterableMutableViewFunctorIS2_EEEEbT1_EUlPvSA_E_@Qt_6 6.6.0
 _ZTIZN9QMetaType19registerMutableViewI5QListIyE9QIterableI13QMetaSequenceEN9QtPrivate37QSequentialIterableMutableViewFunctorIS2_EEEEbT1_EUlPvSA_E_@Qt_6 6.6.0
 _ZTIZN9QMetaType19registerMutableViewISt6vectorI11QModelIndexSaIS2_EE9QIterableI13QMetaSequenceEN9QtPrivate37QSequentialIterableMutableViewFunctorIS4_EEEEbT1_EUlPvSC_E_@Qt_6 6.6.0
 _ZTIZN9QMetaType19registerMutableViewISt6vectorI4QUrlSaIS2_EE9QIterableI13QMetaSequenceEN9QtPrivate37QSequentialIterableMutableViewFunctorIS4_EEEEbT1_EUlPvSC_E_@Qt_6 6.6.0
 _ZTIZN9QMetaType19registerMutableViewISt6vectorI7QStringSaIS2_EE9QIterableI13QMetaSequenceEN9QtPrivate37QSequentialIterableMutableViewFunctorIS4_EEEEbT1_EUlPvSC_E_@Qt_6 6.6.0
 _ZTIZN9QMetaType19registerMutableViewISt6vectorIbSaIbEE9QIterableI13QMetaSequenceEN9QtPrivate37QSequentialIterableMutableViewFunctorIS3_EEEEbT1_EUlPvSB_E_@Qt_6 6.6.0
 _ZTIZN9QMetaType19registerMutableViewISt6vectorIdSaIdEE9QIterableI13QMetaSequenceEN9QtPrivate37QSequentialIterableMutableViewFunctorIS3_EEEEbT1_EUlPvSB_E_@Qt_6 6.6.0
 _ZTIZN9QMetaType19registerMutableViewISt6vectorIfSaIfEE9QIterableI13QMetaSequenceEN9QtPrivate37QSequentialIterableMutableViewFunctorIS3_EEEEbT1_EUlPvSB_E_@Qt_6 6.6.0
 _ZTIZN9QMetaType19registerMutableViewISt6vectorIiSaIiEE9QIterableI13QMetaSequenceEN9QtPrivate37QSequentialIterableMutableViewFunctorIS3_EEEEbT1_EUlPvSB_E_@Qt_6 6.6.0
 _ZTS10QQmlEngine@Qt_6 6.6.0
 _ZTS11QQmlContext@Qt_6 6.6.0
 _ZTS13QQmlComponent@Qt_6 6.6.0
 _ZTS13QQmlIncubator@Qt_6 6.6.0
 _ZTS14QQmlExpression@Qt_6 6.6.0
 _ZTS15QQmlPropertyMap@Qt_6 6.6.0
 _ZTS16QQmlFileSelector@Qt_6 6.6.0
 _ZTS16QQmlParserStatus@Qt_6 6.6.0
 _ZTS17QPropertyObserver@Qt_6 6.6.0
 _ZTS19QQmlExtensionPlugin@Qt_6 6.6.0
 _ZTS21QQmlApplicationEngine@Qt_6 6.6.0
 _ZTS21QQmlImageProviderBase@Qt_6 6.6.0
 _ZTS22QQmlExtensionInterface@Qt_6 6.6.0
 _ZTS23QQmlPropertyValueSource@Qt_6 6.6.0
 _ZTS24QQmlIncubationController@Qt_6 6.6.0
 _ZTS25QQmlEngineExtensionPlugin@Qt_6 6.6.0
 _ZTS26QQmlAbstractUrlInterceptor@Qt_6 6.6.0
 _ZTS27QQmlTypesExtensionInterface@Qt_6 6.6.0
 _ZTS28QQmlEngineExtensionInterface@Qt_6 6.6.0
 _ZTS31QQmlNetworkAccessManagerFactory@Qt_6 6.6.0
 _ZTS9QJSEngine@Qt_6 6.6.0
 _ZTSFP7QObjectP10QQmlEngineP9QJSEngineE@Qt_6 6.6.0
 _ZTSN6QQmlJS10DirectivesE@Qt_6 6.6.0
 _ZTSN6QQmlJS3AST10CaseClauseE@Qt_6 6.6.0
 _ZTSN6QQmlJS3AST10ExpressionE@Qt_6 6.6.0
 _ZTSN6QQmlJS3AST10FromClauseE@Qt_6 6.6.0
 _ZTSN6QQmlJS3AST10UiRequiredE@Qt_6 6.6.0
 _ZTSN6QQmlJS3AST11BaseVisitorE@Qt_6 6.6.0
 _ZTSN6QQmlJS3AST11CaseClausesE@Qt_6 6.6.0
 _ZTSN6QQmlJS3AST11ExportsListE@Qt_6 6.6.0
 _ZTSN6QQmlJS3AST11IfStatementE@Qt_6 6.6.0
 _ZTSN6QQmlJS3AST11ImportsListE@Qt_6 6.6.0
 _ZTSN6QQmlJS3AST11TrueLiteralE@Qt_6 6.6.0
 _ZTSN6QQmlJS3AST12ArgumentListE@Qt_6 6.6.0
 _ZTSN6QQmlJS3AST12ArrayPatternE@Qt_6 6.6.0
 _ZTSN6QQmlJS3AST12ExportClauseE@Qt_6 6.6.0
 _ZTSN6QQmlJS3AST12FalseLiteralE@Qt_6 6.6.0
 _ZTSN6QQmlJS3AST12ForStatementE@Qt_6 6.6.0
 _ZTSN6QQmlJS3AST12ImportClauseE@Qt_6 6.6.0
 _ZTSN6QQmlJS3AST12NamedImportsE@Qt_6 6.6.0
 _ZTSN6QQmlJS3AST12PropertyNameE@Qt_6 6.6.0
 _ZTSN6QQmlJS3AST12SuperLiteralE@Qt_6 6.6.0
 _ZTSN6QQmlJS3AST12TryStatementE@Qt_6 6.6.0
 _ZTSN6QQmlJS3AST12UiAnnotationE@Qt_6 6.6.0
 _ZTSN6QQmlJS3AST13DefaultClauseE@Qt_6 6.6.0
 _ZTSN6QQmlJS3AST13NewExpressionE@Qt_6 6.6.0
 _ZTSN6QQmlJS3AST13NotExpressionE@Qt_6 6.6.0
 _ZTSN6QQmlJS3AST13ObjectPatternE@Qt_6 6.6.0
 _ZTSN6QQmlJS3AST13RegExpLiteralE@Qt_6 6.6.0
 _ZTSN6QQmlJS3AST13StatementListE@Qt_6 6.6.0
 _ZTSN6QQmlJS3AST13StringLiteralE@Qt_6 6.6.0
 _ZTSN6QQmlJS3AST13UiQualifiedIdE@Qt_6 6.6.0
 _ZTSN6QQmlJS3AST13WithStatementE@Qt_6 6.6.0
 _ZTSN6QQmlJS3AST14BreakStatementE@Qt_6 6.6.0
 _ZTSN6QQmlJS3AST14CallExpressionE@Qt_6 6.6.0
 _ZTSN6QQmlJS3AST14EmptyStatementE@Qt_6 6.6.0
 _ZTSN6QQmlJS3AST14ExpressionNodeE@Qt_6 6.6.0
 _ZTSN6QQmlJS3AST14NullExpressionE@Qt_6 6.6.0
 _ZTSN6QQmlJS3AST14NumericLiteralE@Qt_6 6.6.0
 _ZTSN6QQmlJS3AST14PatternElementE@Qt_6 6.6.0
 _ZTSN6QQmlJS3AST14TaggedTemplateE@Qt_6 6.6.0
 _ZTSN6QQmlJS3AST14ThisExpressionE@Qt_6 6.6.0
 _ZTSN6QQmlJS3AST14ThrowStatementE@Qt_6 6.6.0
 _ZTSN6QQmlJS3AST14TypeAnnotationE@Qt_6 6.6.0
 _ZTSN6QQmlJS3AST14TypeExpressionE@Qt_6 6.6.0
 _ZTSN6QQmlJS3AST14UiArrayBindingE@Qt_6 6.6.0
 _ZTSN6QQmlJS3AST14UiObjectMemberE@Qt_6 6.6.0
 _ZTSN6QQmlJS3AST14UiPublicMemberE@Qt_6 6.6.0
 _ZTSN6QQmlJS3AST14VoidExpressionE@Qt_6 6.6.0
 _ZTSN6QQmlJS3AST14WhileStatementE@Qt_6 6.6.0
 _ZTSN6QQmlJS3AST15ExportSpecifierE@Qt_6 6.6.0
 _ZTSN6QQmlJS3AST15ImportSpecifierE@Qt_6 6.6.0
 _ZTSN6QQmlJS3AST15NameSpaceImportE@Qt_6 6.6.0
 _ZTSN6QQmlJS3AST15PatternPropertyE@Qt_6 6.6.0
 _ZTSN6QQmlJS3AST15ReturnStatementE@Qt_6 6.6.0
 _ZTSN6QQmlJS3AST15SwitchStatementE@Qt_6 6.6.0
 _ZTSN6QQmlJS3AST15TemplateLiteralE@Qt_6 6.6.0
 _ZTSN6QQmlJS3AST15TildeExpressionE@Qt_6 6.6.0
 _ZTSN6QQmlJS3AST15UiObjectBindingE@Qt_6 6.6.0
 _ZTSN6QQmlJS3AST15UiParameterListE@Qt_6 6.6.0
 _ZTSN6QQmlJS3AST15UiScriptBindingE@Qt_6 6.6.0
 _ZTSN6QQmlJS3AST15UiSourceElementE@Qt_6 6.6.0
 _ZTSN6QQmlJS3AST15YieldExpressionE@Qt_6 6.6.0
 _ZTSN6QQmlJS3AST16BinaryExpressionE@Qt_6 6.6.0
 _ZTSN6QQmlJS3AST16ClassDeclarationE@Qt_6 6.6.0
 _ZTSN6QQmlJS3AST16ClassElementListE@Qt_6 6.6.0
 _ZTSN6QQmlJS3AST16DeleteExpressionE@Qt_6 6.6.0
 _ZTSN6QQmlJS3AST16DoWhileStatementE@Qt_6 6.6.0
 _ZTSN6QQmlJS3AST16ForEachStatementE@Qt_6 6.6.0
 _ZTSN6QQmlJS3AST16NestedExpressionE@Qt_6 6.6.0
 _ZTSN6QQmlJS3AST16TypeOfExpressionE@Qt_6 6.6.0
 _ZTSN6QQmlJS3AST16UiAnnotationListE@Qt_6 6.6.0
 _ZTSN6QQmlJS3AST16UiEnumMemberListE@Qt_6 6.6.0
 _ZTSN6QQmlJS3AST16UiHeaderItemListE@Qt_6 6.6.0
 _ZTSN6QQmlJS3AST17ContinueStatementE@Qt_6 6.6.0
 _ZTSN6QQmlJS3AST17DebuggerStatementE@Qt_6 6.6.0
 _ZTSN6QQmlJS3AST17ExportDeclarationE@Qt_6 6.6.0
 _ZTSN6QQmlJS3AST17ImportDeclarationE@Qt_6 6.6.0
 _ZTSN6QQmlJS3AST17LabelledStatementE@Qt_6 6.6.0
 _ZTSN6QQmlJS3AST17UiArrayMemberListE@Qt_6 6.6.0
 _ZTSN6QQmlJS3AST17UiEnumDeclarationE@Qt_6 6.6.0
 _ZTSN6QQmlJS3AST17UiInlineComponentE@Qt_6 6.6.0
 _ZTSN6QQmlJS3AST17UiPragmaValueListE@Qt_6 6.6.0
 _ZTSN6QQmlJS3AST17VariableStatementE@Qt_6 6.6.0
 _ZTSN6QQmlJS3AST18PatternElementListE@Qt_6 6.6.0
 _ZTSN6QQmlJS3AST18UiObjectDefinitionE@Qt_6 6.6.0
 _ZTSN6QQmlJS3AST18UiObjectMemberListE@Qt_6 6.6.0
 _ZTSN6QQmlJS3AST18UiVersionSpecifierE@Qt_6 6.6.0
 _ZTSN6QQmlJS3AST19ExpressionStatementE@Qt_6 6.6.0
 _ZTSN6QQmlJS3AST19FormalParameterListE@Qt_6 6.6.0
 _ZTSN6QQmlJS3AST19FunctionDeclarationE@Qt_6 6.6.0
 _ZTSN6QQmlJS3AST19NewMemberExpressionE@Qt_6 6.6.0
 _ZTSN6QQmlJS3AST19PatternPropertyListE@Qt_6 6.6.0
 _ZTSN6QQmlJS3AST19UiObjectInitializerE@Qt_6 6.6.0
 _ZTSN6QQmlJS3AST19UnaryPlusExpressionE@Qt_6 6.6.0
 _ZTSN6QQmlJS3AST20ComputedPropertyNameE@Qt_6 6.6.0
 _ZTSN6QQmlJS3AST20IdentifierExpressionE@Qt_6 6.6.0
 _ZTSN6QQmlJS3AST20UiPropertyAttributesE@Qt_6 6.6.0
 _ZTSN6QQmlJS3AST20UnaryMinusExpressionE@Qt_6 6.6.0
 _ZTSN6QQmlJS3AST21ArrayMemberExpressionE@Qt_6 6.6.0
 _ZTSN6QQmlJS3AST21ConditionalExpressionE@Qt_6 6.6.0
 _ZTSN6QQmlJS3AST21FieldMemberExpressionE@Qt_6 6.6.0
 _ZTSN6QQmlJS3AST22IdentifierPropertyNameE@Qt_6 6.6.0
 _ZTSN6QQmlJS3AST22LeftHandSideExpressionE@Qt_6 6.6.0
 _ZTSN6QQmlJS3AST22PreDecrementExpressionE@Qt_6 6.6.0
 _ZTSN6QQmlJS3AST22PreIncrementExpressionE@Qt_6 6.6.0
 _ZTSN6QQmlJS3AST23PostDecrementExpressionE@Qt_6 6.6.0
 _ZTSN6QQmlJS3AST23PostIncrementExpressionE@Qt_6 6.6.0
 _ZTSN6QQmlJS3AST23VariableDeclarationListE@Qt_6 6.6.0
 _ZTSN6QQmlJS3AST25StringLiteralPropertyNameE@Qt_6 6.6.0
 _ZTSN6QQmlJS3AST26NumericLiteralPropertyNameE@Qt_6 6.6.0
 _ZTSN6QQmlJS3AST4TypeE@Qt_6 6.6.0
 _ZTSN6QQmlJS3AST5CatchE@Qt_6 6.6.0
 _ZTSN6QQmlJS3AST7ElisionE@Qt_6 6.6.0
 _ZTSN6QQmlJS3AST7FinallyE@Qt_6 6.6.0
 _ZTSN6QQmlJS3AST7PatternE@Qt_6 6.6.0
 _ZTSN6QQmlJS3AST7ProgramE@Qt_6 6.6.0
 _ZTSN6QQmlJS3AST7VisitorE@Qt_6 6.6.0
 _ZTSN6QQmlJS3AST8ESModuleE@Qt_6 6.6.0
 _ZTSN6QQmlJS3AST8UiImportE@Qt_6 6.6.0
 _ZTSN6QQmlJS3AST8UiPragmaE@Qt_6 6.6.0
 _ZTSN6QQmlJS3AST9CaseBlockE@Qt_6 6.6.0
 _ZTSN6QQmlJS3AST9StatementE@Qt_6 6.6.0
 _ZTSN6QQmlJS3AST9UiProgramE@Qt_6 6.6.0
 (arch=armel riscv64)_ZTSN9__gnu_cxx7__mutexE@Qt_6 6.6.0
 _ZTSPFP7QObjectP10QQmlEngineP9QJSEngineE@Qt_6 6.6.0
 (arch=armel riscv64)_ZTSSt11_Mutex_baseILN9__gnu_cxx12_Lock_policyE1EE@Qt_6 6.6.0
 (arch=!armel !riscv64)_ZTSSt11_Mutex_baseILN9__gnu_cxx12_Lock_policyE2EE@Qt_6 6.6.0
 (arch=armel riscv64)_ZTSSt16_Sp_counted_baseILN9__gnu_cxx12_Lock_policyE1EE@Qt_6 6.6.0
 (arch=!armel !riscv64)_ZTSSt16_Sp_counted_baseILN9__gnu_cxx12_Lock_policyE2EE@Qt_6 6.6.0
 _ZTSSt19_Sp_make_shared_tag@Qt_6 6.6.0
 _ZTSZN9QMetaType17registerConverterI5QListI12QEasingCurveE9QIterableI13QMetaSequenceEN9QtPrivate33QSequentialIterableConvertFunctorIS3_EEEEbT1_EUlPKvPvE_@Qt_6 6.6.0
 _ZTSZN9QMetaType17registerConverterI5QListI12QQmlPropertyE9QIterableI13QMetaSequenceEN9QtPrivate33QSequentialIterableConvertFunctorIS3_EEEEbT1_EUlPKvPvE_@Qt_6 6.6.0
 _ZTSZN9QMetaType17registerConverterI5QListI16QQmlScriptStringE9QIterableI13QMetaSequenceEN9QtPrivate33QSequentialIterableConvertFunctorIS3_EEEEbT1_EUlPKvPvE_@Qt_6 6.6.0
 _ZTSZN9QMetaType17registerConverterI5QListI18QRegularExpressionE9QIterableI13QMetaSequenceEN9QtPrivate33QSequentialIterableConvertFunctorIS3_EEEEbT1_EUlPKvPvE_@Qt_6 6.6.0
 _ZTSZN9QMetaType17registerConverterI5QListI4QMapI7QString8QVariantEE9QIterableI13QMetaSequenceEN9QtPrivate33QSequentialIterableConvertFunctorIS6_EEEEbT1_EUlPKvPvE_@Qt_6 6.6.0
 _ZTSZN9QMetaType17registerConverterI5QListI4QUrlE9QIterableI13QMetaSequenceEN9QtPrivate33QSequentialIterableConvertFunctorIS3_EEEEbT1_EUlPKvPvE_@Qt_6 6.6.0
 _ZTSZN9QMetaType17registerConverterI5QListI5QCharE9QIterableI13QMetaSequenceEN9QtPrivate33QSequentialIterableConvertFunctorIS3_EEEEbT1_EUlPKvPvE_@Qt_6 6.6.0
 _ZTSZN9QMetaType17registerConverterI5QListI5QDateE9QIterableI13QMetaSequenceEN9QtPrivate33QSequentialIterableConvertFunctorIS3_EEEEbT1_EUlPKvPvE_@Qt_6 6.6.0
 _ZTSZN9QMetaType17registerConverterI5QListI5QRectE9QIterableI13QMetaSequenceEN9QtPrivate33QSequentialIterableConvertFunctorIS3_EEEEbT1_EUlPKvPvE_@Qt_6 6.6.0
 _ZTSZN9QMetaType17registerConverterI5QListI5QSizeE9QIterableI13QMetaSequenceEN9QtPrivate33QSequentialIterableConvertFunctorIS3_EEEEbT1_EUlPKvPvE_@Qt_6 6.6.0
 _ZTSZN9QMetaType17registerConverterI5QListI5QTimeE9QIterableI13QMetaSequenceEN9QtPrivate33QSequentialIterableConvertFunctorIS3_EEEEbT1_EUlPKvPvE_@Qt_6 6.6.0
 _ZTSZN9QMetaType17registerConverterI5QListI6QPointE9QIterableI13QMetaSequenceEN9QtPrivate33QSequentialIterableConvertFunctorIS3_EEEEbT1_EUlPKvPvE_@Qt_6 6.6.0
 _ZTSZN9QMetaType17registerConverterI5QListI6QRectFE9QIterableI13QMetaSequenceEN9QtPrivate33QSequentialIterableConvertFunctorIS3_EEEEbT1_EUlPKvPvE_@Qt_6 6.6.0
 _ZTSZN9QMetaType17registerConverterI5QListI6QSizeFE9QIterableI13QMetaSequenceEN9QtPrivate33QSequentialIterableConvertFunctorIS3_EEEEbT1_EUlPKvPvE_@Qt_6 6.6.0
 _ZTSZN9QMetaType17registerConverterI5QListI7QPointFE9QIterableI13QMetaSequenceEN9QtPrivate33QSequentialIterableConvertFunctorIS3_EEEEbT1_EUlPKvPvE_@Qt_6 6.6.0
 _ZTSZN9QMetaType17registerConverterI5QListI8QJSValueE9QIterableI13QMetaSequenceEN9QtPrivate33QSequentialIterableConvertFunctorIS3_EEEEbT1_EUlPKvPvE_@Qt_6 6.6.0
 _ZTSZN9QMetaType17registerConverterI5QListI9QDateTimeE9QIterableI13QMetaSequenceEN9QtPrivate33QSequentialIterableConvertFunctorIS3_EEEEbT1_EUlPKvPvE_@Qt_6 6.6.0
 _ZTSZN9QMetaType17registerConverterI5QListIDnE9QIterableI13QMetaSequenceEN9QtPrivate33QSequentialIterableConvertFunctorIS2_EEEEbT1_EUlPKvPvE_@Qt_6 6.6.0
 _ZTSZN9QMetaType17registerConverterI5QListIP7QObjectE9QIterableI13QMetaSequenceEN9QtPrivate33QSequentialIterableConvertFunctorIS4_EEEEbT1_EUlPKvPvE_@Qt_6 6.6.0
 _ZTSZN9QMetaType17registerConverterI5QListIaE9QIterableI13QMetaSequenceEN9QtPrivate33QSequentialIterableConvertFunctorIS2_EEEEbT1_EUlPKvPvE_@Qt_6 6.6.0
 _ZTSZN9QMetaType17registerConverterI5QListIbE9QIterableI13QMetaSequenceEN9QtPrivate33QSequentialIterableConvertFunctorIS2_EEEEbT1_EUlPKvPvE_@Qt_6 6.6.0
 _ZTSZN9QMetaType17registerConverterI5QListIdE9QIterableI13QMetaSequenceEN9QtPrivate33QSequentialIterableConvertFunctorIS2_EEEEbT1_EUlPKvPvE_@Qt_6 6.6.0
 _ZTSZN9QMetaType17registerConverterI5QListIfE9QIterableI13QMetaSequenceEN9QtPrivate33QSequentialIterableConvertFunctorIS2_EEEEbT1_EUlPKvPvE_@Qt_6 6.6.0
 _ZTSZN9QMetaType17registerConverterI5QListIhE9QIterableI13QMetaSequenceEN9QtPrivate33QSequentialIterableConvertFunctorIS2_EEEEbT1_EUlPKvPvE_@Qt_6 6.6.0
 _ZTSZN9QMetaType17registerConverterI5QListIiE9QIterableI13QMetaSequenceEN9QtPrivate33QSequentialIterableConvertFunctorIS2_EEEEbT1_EUlPKvPvE_@Qt_6 6.6.0
 _ZTSZN9QMetaType17registerConverterI5QListIjE9QIterableI13QMetaSequenceEN9QtPrivate33QSequentialIterableConvertFunctorIS2_EEEEbT1_EUlPKvPvE_@Qt_6 6.6.0
 _ZTSZN9QMetaType17registerConverterI5QListIsE9QIterableI13QMetaSequenceEN9QtPrivate33QSequentialIterableConvertFunctorIS2_EEEEbT1_EUlPKvPvE_@Qt_6 6.6.0
 _ZTSZN9QMetaType17registerConverterI5QListItE9QIterableI13QMetaSequenceEN9QtPrivate33QSequentialIterableConvertFunctorIS2_EEEEbT1_EUlPKvPvE_@Qt_6 6.6.0
 _ZTSZN9QMetaType17registerConverterI5QListIxE9QIterableI13QMetaSequenceEN9QtPrivate33QSequentialIterableConvertFunctorIS2_EEEEbT1_EUlPKvPvE_@Qt_6 6.6.0
 _ZTSZN9QMetaType17registerConverterI5QListIyE9QIterableI13QMetaSequenceEN9QtPrivate33QSequentialIterableConvertFunctorIS2_EEEEbT1_EUlPKvPvE_@Qt_6 6.6.0
 _ZTSZN9QMetaType17registerConverterI8QJSValue19QSequentialIterablePFS2_RKS1_EEEbT1_EUlPKvPvE_@Qt_6 6.6.0
 _ZTSZN9QMetaType17registerConverterI8QJSValue4QMapI7QString8QVariantEPFS5_RKS1_EEEbT1_EUlPKvPvE_@Qt_6 6.6.0
 _ZTSZN9QMetaType17registerConverterI8QJSValue5QListI7QStringEPFS4_RKS1_EEEbT1_EUlPKvPvE_@Qt_6 6.6.0
 _ZTSZN9QMetaType17registerConverterI8QJSValue5QListI8QVariantEPFS4_RKS1_EEEbT1_EUlPKvPvE_@Qt_6 6.6.0
 _ZTSZN9QMetaType17registerConverterISt6vectorI11QModelIndexSaIS2_EE9QIterableI13QMetaSequenceEN9QtPrivate33QSequentialIterableConvertFunctorIS4_EEEEbT1_EUlPKvPvE_@Qt_6 6.6.0
 _ZTSZN9QMetaType17registerConverterISt6vectorI4QUrlSaIS2_EE9QIterableI13QMetaSequenceEN9QtPrivate33QSequentialIterableConvertFunctorIS4_EEEEbT1_EUlPKvPvE_@Qt_6 6.6.0
 _ZTSZN9QMetaType17registerConverterISt6vectorI7QStringSaIS2_EE9QIterableI13QMetaSequenceEN9QtPrivate33QSequentialIterableConvertFunctorIS4_EEEEbT1_EUlPKvPvE_@Qt_6 6.6.0
 _ZTSZN9QMetaType17registerConverterISt6vectorIbSaIbEE9QIterableI13QMetaSequenceEN9QtPrivate33QSequentialIterableConvertFunctorIS3_EEEEbT1_EUlPKvPvE_@Qt_6 6.6.0
 _ZTSZN9QMetaType17registerConverterISt6vectorIdSaIdEE9QIterableI13QMetaSequenceEN9QtPrivate33QSequentialIterableConvertFunctorIS3_EEEEbT1_EUlPKvPvE_@Qt_6 6.6.0
 _ZTSZN9QMetaType17registerConverterISt6vectorIfSaIfEE9QIterableI13QMetaSequenceEN9QtPrivate33QSequentialIterableConvertFunctorIS3_EEEEbT1_EUlPKvPvE_@Qt_6 6.6.0
 _ZTSZN9QMetaType17registerConverterISt6vectorIiSaIiEE9QIterableI13QMetaSequenceEN9QtPrivate33QSequentialIterableConvertFunctorIS3_EEEEbT1_EUlPKvPvE_@Qt_6 6.6.0
 _ZTSZN9QMetaType19registerMutableViewI5QListI12QEasingCurveE9QIterableI13QMetaSequenceEN9QtPrivate37QSequentialIterableMutableViewFunctorIS3_EEEEbT1_EUlPvSB_E_@Qt_6 6.6.0
 _ZTSZN9QMetaType19registerMutableViewI5QListI12QQmlPropertyE9QIterableI13QMetaSequenceEN9QtPrivate37QSequentialIterableMutableViewFunctorIS3_EEEEbT1_EUlPvSB_E_@Qt_6 6.6.0
 _ZTSZN9QMetaType19registerMutableViewI5QListI16QQmlScriptStringE9QIterableI13QMetaSequenceEN9QtPrivate37QSequentialIterableMutableViewFunctorIS3_EEEEbT1_EUlPvSB_E_@Qt_6 6.6.0
 _ZTSZN9QMetaType19registerMutableViewI5QListI18QRegularExpressionE9QIterableI13QMetaSequenceEN9QtPrivate37QSequentialIterableMutableViewFunctorIS3_EEEEbT1_EUlPvSB_E_@Qt_6 6.6.0
 _ZTSZN9QMetaType19registerMutableViewI5QListI4QMapI7QString8QVariantEE9QIterableI13QMetaSequenceEN9QtPrivate37QSequentialIterableMutableViewFunctorIS6_EEEEbT1_EUlPvSE_E_@Qt_6 6.6.0
 _ZTSZN9QMetaType19registerMutableViewI5QListI4QUrlE9QIterableI13QMetaSequenceEN9QtPrivate37QSequentialIterableMutableViewFunctorIS3_EEEEbT1_EUlPvSB_E_@Qt_6 6.6.0
 _ZTSZN9QMetaType19registerMutableViewI5QListI5QCharE9QIterableI13QMetaSequenceEN9QtPrivate37QSequentialIterableMutableViewFunctorIS3_EEEEbT1_EUlPvSB_E_@Qt_6 6.6.0
 _ZTSZN9QMetaType19registerMutableViewI5QListI5QDateE9QIterableI13QMetaSequenceEN9QtPrivate37QSequentialIterableMutableViewFunctorIS3_EEEEbT1_EUlPvSB_E_@Qt_6 6.6.0
 _ZTSZN9QMetaType19registerMutableViewI5QListI5QRectE9QIterableI13QMetaSequenceEN9QtPrivate37QSequentialIterableMutableViewFunctorIS3_EEEEbT1_EUlPvSB_E_@Qt_6 6.6.0
 _ZTSZN9QMetaType19registerMutableViewI5QListI5QSizeE9QIterableI13QMetaSequenceEN9QtPrivate37QSequentialIterableMutableViewFunctorIS3_EEEEbT1_EUlPvSB_E_@Qt_6 6.6.0
 _ZTSZN9QMetaType19registerMutableViewI5QListI5QTimeE9QIterableI13QMetaSequenceEN9QtPrivate37QSequentialIterableMutableViewFunctorIS3_EEEEbT1_EUlPvSB_E_@Qt_6 6.6.0
 _ZTSZN9QMetaType19registerMutableViewI5QListI6QPointE9QIterableI13QMetaSequenceEN9QtPrivate37QSequentialIterableMutableViewFunctorIS3_EEEEbT1_EUlPvSB_E_@Qt_6 6.6.0
 _ZTSZN9QMetaType19registerMutableViewI5QListI6QRectFE9QIterableI13QMetaSequenceEN9QtPrivate37QSequentialIterableMutableViewFunctorIS3_EEEEbT1_EUlPvSB_E_@Qt_6 6.6.0
 _ZTSZN9QMetaType19registerMutableViewI5QListI6QSizeFE9QIterableI13QMetaSequenceEN9QtPrivate37QSequentialIterableMutableViewFunctorIS3_EEEEbT1_EUlPvSB_E_@Qt_6 6.6.0
 _ZTSZN9QMetaType19registerMutableViewI5QListI7QPointFE9QIterableI13QMetaSequenceEN9QtPrivate37QSequentialIterableMutableViewFunctorIS3_EEEEbT1_EUlPvSB_E_@Qt_6 6.6.0
 _ZTSZN9QMetaType19registerMutableViewI5QListI8QJSValueE9QIterableI13QMetaSequenceEN9QtPrivate37QSequentialIterableMutableViewFunctorIS3_EEEEbT1_EUlPvSB_E_@Qt_6 6.6.0
 _ZTSZN9QMetaType19registerMutableViewI5QListI9QDateTimeE9QIterableI13QMetaSequenceEN9QtPrivate37QSequentialIterableMutableViewFunctorIS3_EEEEbT1_EUlPvSB_E_@Qt_6 6.6.0
 _ZTSZN9QMetaType19registerMutableViewI5QListIDnE9QIterableI13QMetaSequenceEN9QtPrivate37QSequentialIterableMutableViewFunctorIS2_EEEEbT1_EUlPvSA_E_@Qt_6 6.6.0
 _ZTSZN9QMetaType19registerMutableViewI5QListIP7QObjectE9QIterableI13QMetaSequenceEN9QtPrivate37QSequentialIterableMutableViewFunctorIS4_EEEEbT1_EUlPvSC_E_@Qt_6 6.6.0
 _ZTSZN9QMetaType19registerMutableViewI5QListIaE9QIterableI13QMetaSequenceEN9QtPrivate37QSequentialIterableMutableViewFunctorIS2_EEEEbT1_EUlPvSA_E_@Qt_6 6.6.0
 _ZTSZN9QMetaType19registerMutableViewI5QListIbE9QIterableI13QMetaSequenceEN9QtPrivate37QSequentialIterableMutableViewFunctorIS2_EEEEbT1_EUlPvSA_E_@Qt_6 6.6.0
 _ZTSZN9QMetaType19registerMutableViewI5QListIdE9QIterableI13QMetaSequenceEN9QtPrivate37QSequentialIterableMutableViewFunctorIS2_EEEEbT1_EUlPvSA_E_@Qt_6 6.6.0
 _ZTSZN9QMetaType19registerMutableViewI5QListIfE9QIterableI13QMetaSequenceEN9QtPrivate37QSequentialIterableMutableViewFunctorIS2_EEEEbT1_EUlPvSA_E_@Qt_6 6.6.0
 _ZTSZN9QMetaType19registerMutableViewI5QListIhE9QIterableI13QMetaSequenceEN9QtPrivate37QSequentialIterableMutableViewFunctorIS2_EEEEbT1_EUlPvSA_E_@Qt_6 6.6.0
 _ZTSZN9QMetaType19registerMutableViewI5QListIiE9QIterableI13QMetaSequenceEN9QtPrivate37QSequentialIterableMutableViewFunctorIS2_EEEEbT1_EUlPvSA_E_@Qt_6 6.6.0
 _ZTSZN9QMetaType19registerMutableViewI5QListIjE9QIterableI13QMetaSequenceEN9QtPrivate37QSequentialIterableMutableViewFunctorIS2_EEEEbT1_EUlPvSA_E_@Qt_6 6.6.0
 _ZTSZN9QMetaType19registerMutableViewI5QListIsE9QIterableI13QMetaSequenceEN9QtPrivate37QSequentialIterableMutableViewFunctorIS2_EEEEbT1_EUlPvSA_E_@Qt_6 6.6.0
 _ZTSZN9QMetaType19registerMutableViewI5QListItE9QIterableI13QMetaSequenceEN9QtPrivate37QSequentialIterableMutableViewFunctorIS2_EEEEbT1_EUlPvSA_E_@Qt_6 6.6.0
 _ZTSZN9QMetaType19registerMutableViewI5QListIxE9QIterableI13QMetaSequenceEN9QtPrivate37QSequentialIterableMutableViewFunctorIS2_EEEEbT1_EUlPvSA_E_@Qt_6 6.6.0
 _ZTSZN9QMetaType19registerMutableViewI5QListIyE9QIterableI13QMetaSequenceEN9QtPrivate37QSequentialIterableMutableViewFunctorIS2_EEEEbT1_EUlPvSA_E_@Qt_6 6.6.0
 _ZTSZN9QMetaType19registerMutableViewISt6vectorI11QModelIndexSaIS2_EE9QIterableI13QMetaSequenceEN9QtPrivate37QSequentialIterableMutableViewFunctorIS4_EEEEbT1_EUlPvSC_E_@Qt_6 6.6.0
 _ZTSZN9QMetaType19registerMutableViewISt6vectorI4QUrlSaIS2_EE9QIterableI13QMetaSequenceEN9QtPrivate37QSequentialIterableMutableViewFunctorIS4_EEEEbT1_EUlPvSC_E_@Qt_6 6.6.0
 _ZTSZN9QMetaType19registerMutableViewISt6vectorI7QStringSaIS2_EE9QIterableI13QMetaSequenceEN9QtPrivate37QSequentialIterableMutableViewFunctorIS4_EEEEbT1_EUlPvSC_E_@Qt_6 6.6.0
 _ZTSZN9QMetaType19registerMutableViewISt6vectorIbSaIbEE9QIterableI13QMetaSequenceEN9QtPrivate37QSequentialIterableMutableViewFunctorIS3_EEEEbT1_EUlPvSB_E_@Qt_6 6.6.0
 _ZTSZN9QMetaType19registerMutableViewISt6vectorIdSaIdEE9QIterableI13QMetaSequenceEN9QtPrivate37QSequentialIterableMutableViewFunctorIS3_EEEEbT1_EUlPvSB_E_@Qt_6 6.6.0
 _ZTSZN9QMetaType19registerMutableViewISt6vectorIfSaIfEE9QIterableI13QMetaSequenceEN9QtPrivate37QSequentialIterableMutableViewFunctorIS3_EEEEbT1_EUlPvSB_E_@Qt_6 6.6.0
 _ZTSZN9QMetaType19registerMutableViewISt6vectorIiSaIiEE9QIterableI13QMetaSequenceEN9QtPrivate37QSequentialIterableMutableViewFunctorIS3_EEEEbT1_EUlPvSB_E_@Qt_6 6.6.0
 _ZTV10QQmlEngine@Qt_6 6.6.0
 _ZTV11QQmlContext@Qt_6 6.6.0
 _ZTV13QQmlComponent@Qt_6 6.6.0
 _ZTV13QQmlIncubator@Qt_6 6.6.0
 _ZTV14QQmlExpression@Qt_6 6.6.0
 _ZTV15QQmlPropertyMap@Qt_6 6.6.0
 _ZTV16QQmlFileSelector@Qt_6 6.6.0
 _ZTV16QQmlParserStatus@Qt_6 6.6.0
 _ZTV19QQmlExtensionPlugin@Qt_6 6.6.0
 _ZTV21QQmlApplicationEngine@Qt_6 6.6.0
 _ZTV21QQmlImageProviderBase@Qt_6 6.6.0
 _ZTV22QQmlExtensionInterface@Qt_6 6.6.0
 _ZTV23QQmlPropertyValueSource@Qt_6 6.6.0
 _ZTV24QQmlIncubationController@Qt_6 6.6.0
 _ZTV25QQmlEngineExtensionPlugin@Qt_6 6.6.0
 _ZTV27QQmlTypesExtensionInterface@Qt_6 6.6.0
 _ZTV28QQmlEngineExtensionInterface@Qt_6 6.6.0
 _ZTV31QQmlNetworkAccessManagerFactory@Qt_6 6.6.0
 _ZTV9QJSEngine@Qt_6 6.6.0
 _ZTVN6QQmlJS3AST10CaseClauseE@Qt_6 6.6.0
 _ZTVN6QQmlJS3AST10ExpressionE@Qt_6 6.6.0
 _ZTVN6QQmlJS3AST10FromClauseE@Qt_6 6.6.0
 _ZTVN6QQmlJS3AST10UiRequiredE@Qt_6 6.6.0
 _ZTVN6QQmlJS3AST11BaseVisitorE@Qt_6 6.6.0
 _ZTVN6QQmlJS3AST11CaseClausesE@Qt_6 6.6.0
 _ZTVN6QQmlJS3AST11ExportsListE@Qt_6 6.6.0
 _ZTVN6QQmlJS3AST11IfStatementE@Qt_6 6.6.0
 _ZTVN6QQmlJS3AST11ImportsListE@Qt_6 6.6.0
 _ZTVN6QQmlJS3AST11TrueLiteralE@Qt_6 6.6.0
 _ZTVN6QQmlJS3AST12ArgumentListE@Qt_6 6.6.0
 _ZTVN6QQmlJS3AST12ArrayPatternE@Qt_6 6.6.0
 _ZTVN6QQmlJS3AST12ExportClauseE@Qt_6 6.6.0
 _ZTVN6QQmlJS3AST12FalseLiteralE@Qt_6 6.6.0
 _ZTVN6QQmlJS3AST12ForStatementE@Qt_6 6.6.0
 _ZTVN6QQmlJS3AST12ImportClauseE@Qt_6 6.6.0
 _ZTVN6QQmlJS3AST12NamedImportsE@Qt_6 6.6.0
 _ZTVN6QQmlJS3AST12SuperLiteralE@Qt_6 6.6.0
 _ZTVN6QQmlJS3AST12TryStatementE@Qt_6 6.6.0
 _ZTVN6QQmlJS3AST12UiAnnotationE@Qt_6 6.6.0
 _ZTVN6QQmlJS3AST13DefaultClauseE@Qt_6 6.6.0
 _ZTVN6QQmlJS3AST13NewExpressionE@Qt_6 6.6.0
 _ZTVN6QQmlJS3AST13NotExpressionE@Qt_6 6.6.0
 _ZTVN6QQmlJS3AST13ObjectPatternE@Qt_6 6.6.0
 _ZTVN6QQmlJS3AST13RegExpLiteralE@Qt_6 6.6.0
 _ZTVN6QQmlJS3AST13StatementListE@Qt_6 6.6.0
 _ZTVN6QQmlJS3AST13StringLiteralE@Qt_6 6.6.0
 _ZTVN6QQmlJS3AST13UiQualifiedIdE@Qt_6 6.6.0
 _ZTVN6QQmlJS3AST13WithStatementE@Qt_6 6.6.0
 _ZTVN6QQmlJS3AST14BreakStatementE@Qt_6 6.6.0
 _ZTVN6QQmlJS3AST14CallExpressionE@Qt_6 6.6.0
 _ZTVN6QQmlJS3AST14EmptyStatementE@Qt_6 6.6.0
 _ZTVN6QQmlJS3AST14ExpressionNodeE@Qt_6 6.6.0
 _ZTVN6QQmlJS3AST14NullExpressionE@Qt_6 6.6.0
 _ZTVN6QQmlJS3AST14NumericLiteralE@Qt_6 6.6.0
 _ZTVN6QQmlJS3AST14PatternElementE@Qt_6 6.6.0
 _ZTVN6QQmlJS3AST14TaggedTemplateE@Qt_6 6.6.0
 _ZTVN6QQmlJS3AST14ThisExpressionE@Qt_6 6.6.0
 _ZTVN6QQmlJS3AST14ThrowStatementE@Qt_6 6.6.0
 _ZTVN6QQmlJS3AST14TypeAnnotationE@Qt_6 6.6.0
 _ZTVN6QQmlJS3AST14TypeExpressionE@Qt_6 6.6.0
 _ZTVN6QQmlJS3AST14UiArrayBindingE@Qt_6 6.6.0
 _ZTVN6QQmlJS3AST14UiObjectMemberE@Qt_6 6.6.0
 _ZTVN6QQmlJS3AST14UiPublicMemberE@Qt_6 6.6.0
 _ZTVN6QQmlJS3AST14VoidExpressionE@Qt_6 6.6.0
 _ZTVN6QQmlJS3AST14WhileStatementE@Qt_6 6.6.0
 _ZTVN6QQmlJS3AST15ExportSpecifierE@Qt_6 6.6.0
 _ZTVN6QQmlJS3AST15ImportSpecifierE@Qt_6 6.6.0
 _ZTVN6QQmlJS3AST15NameSpaceImportE@Qt_6 6.6.0
 _ZTVN6QQmlJS3AST15PatternPropertyE@Qt_6 6.6.0
 _ZTVN6QQmlJS3AST15ReturnStatementE@Qt_6 6.6.0
 _ZTVN6QQmlJS3AST15SwitchStatementE@Qt_6 6.6.0
 _ZTVN6QQmlJS3AST15TemplateLiteralE@Qt_6 6.6.0
 _ZTVN6QQmlJS3AST15TildeExpressionE@Qt_6 6.6.0
 _ZTVN6QQmlJS3AST15UiObjectBindingE@Qt_6 6.6.0
 _ZTVN6QQmlJS3AST15UiParameterListE@Qt_6 6.6.0
 _ZTVN6QQmlJS3AST15UiScriptBindingE@Qt_6 6.6.0
 _ZTVN6QQmlJS3AST15UiSourceElementE@Qt_6 6.6.0
 _ZTVN6QQmlJS3AST15YieldExpressionE@Qt_6 6.6.0
 _ZTVN6QQmlJS3AST16BinaryExpressionE@Qt_6 6.6.0
 _ZTVN6QQmlJS3AST16ClassDeclarationE@Qt_6 6.6.0
 _ZTVN6QQmlJS3AST16ClassElementListE@Qt_6 6.6.0
 _ZTVN6QQmlJS3AST16DeleteExpressionE@Qt_6 6.6.0
 _ZTVN6QQmlJS3AST16DoWhileStatementE@Qt_6 6.6.0
 _ZTVN6QQmlJS3AST16ForEachStatementE@Qt_6 6.6.0
 _ZTVN6QQmlJS3AST16NestedExpressionE@Qt_6 6.6.0
 _ZTVN6QQmlJS3AST16TypeOfExpressionE@Qt_6 6.6.0
 _ZTVN6QQmlJS3AST16UiAnnotationListE@Qt_6 6.6.0
 _ZTVN6QQmlJS3AST16UiEnumMemberListE@Qt_6 6.6.0
 _ZTVN6QQmlJS3AST16UiHeaderItemListE@Qt_6 6.6.0
 _ZTVN6QQmlJS3AST17ContinueStatementE@Qt_6 6.6.0
 _ZTVN6QQmlJS3AST17DebuggerStatementE@Qt_6 6.6.0
 _ZTVN6QQmlJS3AST17ExportDeclarationE@Qt_6 6.6.0
 _ZTVN6QQmlJS3AST17ImportDeclarationE@Qt_6 6.6.0
 _ZTVN6QQmlJS3AST17LabelledStatementE@Qt_6 6.6.0
 _ZTVN6QQmlJS3AST17UiArrayMemberListE@Qt_6 6.6.0
 _ZTVN6QQmlJS3AST17UiEnumDeclarationE@Qt_6 6.6.0
 _ZTVN6QQmlJS3AST17UiInlineComponentE@Qt_6 6.6.0
 _ZTVN6QQmlJS3AST17UiPragmaValueListE@Qt_6 6.6.0
 _ZTVN6QQmlJS3AST17VariableStatementE@Qt_6 6.6.0
 _ZTVN6QQmlJS3AST18PatternElementListE@Qt_6 6.6.0
 _ZTVN6QQmlJS3AST18UiObjectDefinitionE@Qt_6 6.6.0
 _ZTVN6QQmlJS3AST18UiObjectMemberListE@Qt_6 6.6.0
 _ZTVN6QQmlJS3AST18UiVersionSpecifierE@Qt_6 6.6.0
 _ZTVN6QQmlJS3AST19ExpressionStatementE@Qt_6 6.6.0
 _ZTVN6QQmlJS3AST19FormalParameterListE@Qt_6 6.6.0
 _ZTVN6QQmlJS3AST19FunctionDeclarationE@Qt_6 6.6.0
 _ZTVN6QQmlJS3AST19NewMemberExpressionE@Qt_6 6.6.0
 _ZTVN6QQmlJS3AST19PatternPropertyListE@Qt_6 6.6.0
 _ZTVN6QQmlJS3AST19UiObjectInitializerE@Qt_6 6.6.0
 _ZTVN6QQmlJS3AST19UnaryPlusExpressionE@Qt_6 6.6.0
 _ZTVN6QQmlJS3AST20ComputedPropertyNameE@Qt_6 6.6.0
 _ZTVN6QQmlJS3AST20IdentifierExpressionE@Qt_6 6.6.0
 _ZTVN6QQmlJS3AST20UiPropertyAttributesE@Qt_6 6.6.0
 _ZTVN6QQmlJS3AST20UnaryMinusExpressionE@Qt_6 6.6.0
 _ZTVN6QQmlJS3AST21ArrayMemberExpressionE@Qt_6 6.6.0
 _ZTVN6QQmlJS3AST21ConditionalExpressionE@Qt_6 6.6.0
 _ZTVN6QQmlJS3AST21FieldMemberExpressionE@Qt_6 6.6.0
 _ZTVN6QQmlJS3AST22IdentifierPropertyNameE@Qt_6 6.6.0
 _ZTVN6QQmlJS3AST22LeftHandSideExpressionE@Qt_6 6.6.0
 _ZTVN6QQmlJS3AST22PreDecrementExpressionE@Qt_6 6.6.0
 _ZTVN6QQmlJS3AST22PreIncrementExpressionE@Qt_6 6.6.0
 _ZTVN6QQmlJS3AST23PostDecrementExpressionE@Qt_6 6.6.0
 _ZTVN6QQmlJS3AST23PostIncrementExpressionE@Qt_6 6.6.0
 _ZTVN6QQmlJS3AST23VariableDeclarationListE@Qt_6 6.6.0
 _ZTVN6QQmlJS3AST25StringLiteralPropertyNameE@Qt_6 6.6.0
 _ZTVN6QQmlJS3AST26NumericLiteralPropertyNameE@Qt_6 6.6.0
 _ZTVN6QQmlJS3AST4TypeE@Qt_6 6.6.0
 _ZTVN6QQmlJS3AST5CatchE@Qt_6 6.6.0
 _ZTVN6QQmlJS3AST7ElisionE@Qt_6 6.6.0
 _ZTVN6QQmlJS3AST7FinallyE@Qt_6 6.6.0
 _ZTVN6QQmlJS3AST7PatternE@Qt_6 6.6.0
 _ZTVN6QQmlJS3AST7ProgramE@Qt_6 6.6.0
 _ZTVN6QQmlJS3AST8ESModuleE@Qt_6 6.6.0
 _ZTVN6QQmlJS3AST8UiImportE@Qt_6 6.6.0
 _ZTVN6QQmlJS3AST8UiPragmaE@Qt_6 6.6.0
 _ZTVN6QQmlJS3AST9CaseBlockE@Qt_6 6.6.0
 _ZTVN6QQmlJS3AST9StatementE@Qt_6 6.6.0
 _ZTVN6QQmlJS3AST9UiProgramE@Qt_6 6.6.0
 (optional=templinst)_ZZN9QMetaType21registerConverterImplI5QListI12QEasingCurveE9QIterableI13QMetaSequenceEEEbSt8functionIFbPKvPvEES_S_E10unregister@Qt_6 6.6.0
 (optional=templinst)_ZZN9QMetaType21registerConverterImplI5QListI12QQmlPropertyE9QIterableI13QMetaSequenceEEEbSt8functionIFbPKvPvEES_S_E10unregister@Qt_6 6.6.0
 (optional=templinst)_ZZN9QMetaType21registerConverterImplI5QListI16QQmlScriptStringE9QIterableI13QMetaSequenceEEEbSt8functionIFbPKvPvEES_S_E10unregister@Qt_6 6.6.0
 (optional=templinst)_ZZN9QMetaType21registerConverterImplI5QListI18QRegularExpressionE9QIterableI13QMetaSequenceEEEbSt8functionIFbPKvPvEES_S_E10unregister@Qt_6 6.6.0
 (optional=templinst)_ZZN9QMetaType21registerConverterImplI5QListI4QMapI7QString8QVariantEE9QIterableI13QMetaSequenceEEEbSt8functionIFbPKvPvEES_S_E10unregister@Qt_6 6.6.0
 (optional=templinst)_ZZN9QMetaType21registerConverterImplI5QListI4QUrlE9QIterableI13QMetaSequenceEEEbSt8functionIFbPKvPvEES_S_E10unregister@Qt_6 6.6.0
 (optional=templinst)_ZZN9QMetaType21registerConverterImplI5QListI5QCharE9QIterableI13QMetaSequenceEEEbSt8functionIFbPKvPvEES_S_E10unregister@Qt_6 6.6.0
 (optional=templinst)_ZZN9QMetaType21registerConverterImplI5QListI5QDateE9QIterableI13QMetaSequenceEEEbSt8functionIFbPKvPvEES_S_E10unregister@Qt_6 6.6.0
 (optional=templinst)_ZZN9QMetaType21registerConverterImplI5QListI5QRectE9QIterableI13QMetaSequenceEEEbSt8functionIFbPKvPvEES_S_E10unregister@Qt_6 6.6.0
 (optional=templinst)_ZZN9QMetaType21registerConverterImplI5QListI5QSizeE9QIterableI13QMetaSequenceEEEbSt8functionIFbPKvPvEES_S_E10unregister@Qt_6 6.6.0
 (optional=templinst)_ZZN9QMetaType21registerConverterImplI5QListI5QTimeE9QIterableI13QMetaSequenceEEEbSt8functionIFbPKvPvEES_S_E10unregister@Qt_6 6.6.0
 (optional=templinst)_ZZN9QMetaType21registerConverterImplI5QListI6QPointE9QIterableI13QMetaSequenceEEEbSt8functionIFbPKvPvEES_S_E10unregister@Qt_6 6.6.0
 (optional=templinst)_ZZN9QMetaType21registerConverterImplI5QListI6QRectFE9QIterableI13QMetaSequenceEEEbSt8functionIFbPKvPvEES_S_E10unregister@Qt_6 6.6.0
 (optional=templinst)_ZZN9QMetaType21registerConverterImplI5QListI6QSizeFE9QIterableI13QMetaSequenceEEEbSt8functionIFbPKvPvEES_S_E10unregister@Qt_6 6.6.0
 (optional=templinst)_ZZN9QMetaType21registerConverterImplI5QListI7QPointFE9QIterableI13QMetaSequenceEEEbSt8functionIFbPKvPvEES_S_E10unregister@Qt_6 6.6.0
 (optional=templinst)_ZZN9QMetaType21registerConverterImplI5QListI8QJSValueE9QIterableI13QMetaSequenceEEEbSt8functionIFbPKvPvEES_S_E10unregister@Qt_6 6.6.0
 (optional=templinst)_ZZN9QMetaType21registerConverterImplI5QListI9QDateTimeE9QIterableI13QMetaSequenceEEEbSt8functionIFbPKvPvEES_S_E10unregister@Qt_6 6.6.0
 (optional=templinst)_ZZN9QMetaType21registerConverterImplI5QListIDnE9QIterableI13QMetaSequenceEEEbSt8functionIFbPKvPvEES_S_E10unregister@Qt_6 6.6.0
 (optional=templinst)_ZZN9QMetaType21registerConverterImplI5QListIP7QObjectE9QIterableI13QMetaSequenceEEEbSt8functionIFbPKvPvEES_S_E10unregister@Qt_6 6.6.0
 (optional=templinst)_ZZN9QMetaType21registerConverterImplI5QListIaE9QIterableI13QMetaSequenceEEEbSt8functionIFbPKvPvEES_S_E10unregister@Qt_6 6.6.0
 (optional=templinst)_ZZN9QMetaType21registerConverterImplI5QListIbE9QIterableI13QMetaSequenceEEEbSt8functionIFbPKvPvEES_S_E10unregister@Qt_6 6.6.0
 (optional=templinst)_ZZN9QMetaType21registerConverterImplI5QListIdE9QIterableI13QMetaSequenceEEEbSt8functionIFbPKvPvEES_S_E10unregister@Qt_6 6.6.0
 (optional=templinst)_ZZN9QMetaType21registerConverterImplI5QListIfE9QIterableI13QMetaSequenceEEEbSt8functionIFbPKvPvEES_S_E10unregister@Qt_6 6.6.0
 (optional=templinst)_ZZN9QMetaType21registerConverterImplI5QListIhE9QIterableI13QMetaSequenceEEEbSt8functionIFbPKvPvEES_S_E10unregister@Qt_6 6.6.0
 (optional=templinst)_ZZN9QMetaType21registerConverterImplI5QListIiE9QIterableI13QMetaSequenceEEEbSt8functionIFbPKvPvEES_S_E10unregister@Qt_6 6.6.0
 (optional=templinst)_ZZN9QMetaType21registerConverterImplI5QListIjE9QIterableI13QMetaSequenceEEEbSt8functionIFbPKvPvEES_S_E10unregister@Qt_6 6.6.0
 (optional=templinst)_ZZN9QMetaType21registerConverterImplI5QListIsE9QIterableI13QMetaSequenceEEEbSt8functionIFbPKvPvEES_S_E10unregister@Qt_6 6.6.0
 (optional=templinst)_ZZN9QMetaType21registerConverterImplI5QListItE9QIterableI13QMetaSequenceEEEbSt8functionIFbPKvPvEES_S_E10unregister@Qt_6 6.6.0
 (optional=templinst)_ZZN9QMetaType21registerConverterImplI5QListIxE9QIterableI13QMetaSequenceEEEbSt8functionIFbPKvPvEES_S_E10unregister@Qt_6 6.6.0
 (optional=templinst)_ZZN9QMetaType21registerConverterImplI5QListIyE9QIterableI13QMetaSequenceEEEbSt8functionIFbPKvPvEES_S_E10unregister@Qt_6 6.6.0
 (optional=templinst)_ZZN9QMetaType21registerConverterImplI8QJSValue19QSequentialIterableEEbSt8functionIFbPKvPvEES_S_E10unregister@Qt_6 6.6.0
 (optional=templinst)_ZZN9QMetaType21registerConverterImplI8QJSValue4QMapI7QString8QVariantEEEbSt8functionIFbPKvPvEES_S_E10unregister@Qt_6 6.6.0
 (optional=templinst)_ZZN9QMetaType21registerConverterImplI8QJSValue5QListI7QStringEEEbSt8functionIFbPKvPvEES_S_E10unregister@Qt_6 6.6.0
 (optional=templinst)_ZZN9QMetaType21registerConverterImplI8QJSValue5QListI8QVariantEEEbSt8functionIFbPKvPvEES_S_E10unregister@Qt_6 6.6.0
 (optional=templinst)_ZZN9QMetaType21registerConverterImplISt6vectorI11QModelIndexSaIS2_EE9QIterableI13QMetaSequenceEEEbSt8functionIFbPKvPvEES_S_E10unregister@Qt_6 6.6.0
 (optional=templinst)_ZZN9QMetaType21registerConverterImplISt6vectorI4QUrlSaIS2_EE9QIterableI13QMetaSequenceEEEbSt8functionIFbPKvPvEES_S_E10unregister@Qt_6 6.6.0
 (optional=templinst)_ZZN9QMetaType21registerConverterImplISt6vectorI7QStringSaIS2_EE9QIterableI13QMetaSequenceEEEbSt8functionIFbPKvPvEES_S_E10unregister@Qt_6 6.6.0
 (optional=templinst)_ZZN9QMetaType21registerConverterImplISt6vectorIbSaIbEE9QIterableI13QMetaSequenceEEEbSt8functionIFbPKvPvEES_S_E10unregister@Qt_6 6.6.0
 (optional=templinst)_ZZN9QMetaType21registerConverterImplISt6vectorIdSaIdEE9QIterableI13QMetaSequenceEEEbSt8functionIFbPKvPvEES_S_E10unregister@Qt_6 6.6.0
 (optional=templinst)_ZZN9QMetaType21registerConverterImplISt6vectorIfSaIfEE9QIterableI13QMetaSequenceEEEbSt8functionIFbPKvPvEES_S_E10unregister@Qt_6 6.6.0
 (optional=templinst)_ZZN9QMetaType21registerConverterImplISt6vectorIiSaIiEE9QIterableI13QMetaSequenceEEEbSt8functionIFbPKvPvEES_S_E10unregister@Qt_6 6.6.0
 (optional=templinst)_ZZN9QMetaType23registerMutableViewImplI5QListI12QEasingCurveE9QIterableI13QMetaSequenceEEEbSt8functionIFbPvS8_EES_S_E10unregister@Qt_6 6.6.0
 (optional=templinst)_ZZN9QMetaType23registerMutableViewImplI5QListI12QQmlPropertyE9QIterableI13QMetaSequenceEEEbSt8functionIFbPvS8_EES_S_E10unregister@Qt_6 6.6.0
 (optional=templinst)_ZZN9QMetaType23registerMutableViewImplI5QListI16QQmlScriptStringE9QIterableI13QMetaSequenceEEEbSt8functionIFbPvS8_EES_S_E10unregister@Qt_6 6.6.0
 (optional=templinst)_ZZN9QMetaType23registerMutableViewImplI5QListI18QRegularExpressionE9QIterableI13QMetaSequenceEEEbSt8functionIFbPvS8_EES_S_E10unregister@Qt_6 6.6.0
 (optional=templinst)_ZZN9QMetaType23registerMutableViewImplI5QListI4QMapI7QString8QVariantEE9QIterableI13QMetaSequenceEEEbSt8functionIFbPvSB_EES_S_E10unregister@Qt_6 6.6.0
 (optional=templinst)_ZZN9QMetaType23registerMutableViewImplI5QListI4QUrlE9QIterableI13QMetaSequenceEEEbSt8functionIFbPvS8_EES_S_E10unregister@Qt_6 6.6.0
 (optional=templinst)_ZZN9QMetaType23registerMutableViewImplI5QListI5QCharE9QIterableI13QMetaSequenceEEEbSt8functionIFbPvS8_EES_S_E10unregister@Qt_6 6.6.0
 (optional=templinst)_ZZN9QMetaType23registerMutableViewImplI5QListI5QDateE9QIterableI13QMetaSequenceEEEbSt8functionIFbPvS8_EES_S_E10unregister@Qt_6 6.6.0
 (optional=templinst)_ZZN9QMetaType23registerMutableViewImplI5QListI5QRectE9QIterableI13QMetaSequenceEEEbSt8functionIFbPvS8_EES_S_E10unregister@Qt_6 6.6.0
 (optional=templinst)_ZZN9QMetaType23registerMutableViewImplI5QListI5QSizeE9QIterableI13QMetaSequenceEEEbSt8functionIFbPvS8_EES_S_E10unregister@Qt_6 6.6.0
 (optional=templinst)_ZZN9QMetaType23registerMutableViewImplI5QListI5QTimeE9QIterableI13QMetaSequenceEEEbSt8functionIFbPvS8_EES_S_E10unregister@Qt_6 6.6.0
 (optional=templinst)_ZZN9QMetaType23registerMutableViewImplI5QListI6QPointE9QIterableI13QMetaSequenceEEEbSt8functionIFbPvS8_EES_S_E10unregister@Qt_6 6.6.0
 (optional=templinst)_ZZN9QMetaType23registerMutableViewImplI5QListI6QRectFE9QIterableI13QMetaSequenceEEEbSt8functionIFbPvS8_EES_S_E10unregister@Qt_6 6.6.0
 (optional=templinst)_ZZN9QMetaType23registerMutableViewImplI5QListI6QSizeFE9QIterableI13QMetaSequenceEEEbSt8functionIFbPvS8_EES_S_E10unregister@Qt_6 6.6.0
 (optional=templinst)_ZZN9QMetaType23registerMutableViewImplI5QListI7QPointFE9QIterableI13QMetaSequenceEEEbSt8functionIFbPvS8_EES_S_E10unregister@Qt_6 6.6.0
 (optional=templinst)_ZZN9QMetaType23registerMutableViewImplI5QListI8QJSValueE9QIterableI13QMetaSequenceEEEbSt8functionIFbPvS8_EES_S_E10unregister@Qt_6 6.6.0
 (optional=templinst)_ZZN9QMetaType23registerMutableViewImplI5QListI9QDateTimeE9QIterableI13QMetaSequenceEEEbSt8functionIFbPvS8_EES_S_E10unregister@Qt_6 6.6.0
 (optional=templinst)_ZZN9QMetaType23registerMutableViewImplI5QListIDnE9QIterableI13QMetaSequenceEEEbSt8functionIFbPvS7_EES_S_E10unregister@Qt_6 6.6.0
 (optional=templinst)_ZZN9QMetaType23registerMutableViewImplI5QListIP7QObjectE9QIterableI13QMetaSequenceEEEbSt8functionIFbPvS9_EES_S_E10unregister@Qt_6 6.6.0
 (optional=templinst)_ZZN9QMetaType23registerMutableViewImplI5QListIaE9QIterableI13QMetaSequenceEEEbSt8functionIFbPvS7_EES_S_E10unregister@Qt_6 6.6.0
 (optional=templinst)_ZZN9QMetaType23registerMutableViewImplI5QListIbE9QIterableI13QMetaSequenceEEEbSt8functionIFbPvS7_EES_S_E10unregister@Qt_6 6.6.0
 (optional=templinst)_ZZN9QMetaType23registerMutableViewImplI5QListIdE9QIterableI13QMetaSequenceEEEbSt8functionIFbPvS7_EES_S_E10unregister@Qt_6 6.6.0
 (optional=templinst)_ZZN9QMetaType23registerMutableViewImplI5QListIfE9QIterableI13QMetaSequenceEEEbSt8functionIFbPvS7_EES_S_E10unregister@Qt_6 6.6.0
 (optional=templinst)_ZZN9QMetaType23registerMutableViewImplI5QListIhE9QIterableI13QMetaSequenceEEEbSt8functionIFbPvS7_EES_S_E10unregister@Qt_6 6.6.0
 (optional=templinst)_ZZN9QMetaType23registerMutableViewImplI5QListIiE9QIterableI13QMetaSequenceEEEbSt8functionIFbPvS7_EES_S_E10unregister@Qt_6 6.6.0
 (optional=templinst)_ZZN9QMetaType23registerMutableViewImplI5QListIjE9QIterableI13QMetaSequenceEEEbSt8functionIFbPvS7_EES_S_E10unregister@Qt_6 6.6.0
 (optional=templinst)_ZZN9QMetaType23registerMutableViewImplI5QListIsE9QIterableI13QMetaSequenceEEEbSt8functionIFbPvS7_EES_S_E10unregister@Qt_6 6.6.0
 (optional=templinst)_ZZN9QMetaType23registerMutableViewImplI5QListItE9QIterableI13QMetaSequenceEEEbSt8functionIFbPvS7_EES_S_E10unregister@Qt_6 6.6.0
 (optional=templinst)_ZZN9QMetaType23registerMutableViewImplI5QListIxE9QIterableI13QMetaSequenceEEEbSt8functionIFbPvS7_EES_S_E10unregister@Qt_6 6.6.0
 (optional=templinst)_ZZN9QMetaType23registerMutableViewImplI5QListIyE9QIterableI13QMetaSequenceEEEbSt8functionIFbPvS7_EES_S_E10unregister@Qt_6 6.6.0
 (optional=templinst)_ZZN9QMetaType23registerMutableViewImplISt6vectorI11QModelIndexSaIS2_EE9QIterableI13QMetaSequenceEEEbSt8functionIFbPvS9_EES_S_E10unregister@Qt_6 6.6.0
 (optional=templinst)_ZZN9QMetaType23registerMutableViewImplISt6vectorI4QUrlSaIS2_EE9QIterableI13QMetaSequenceEEEbSt8functionIFbPvS9_EES_S_E10unregister@Qt_6 6.6.0
 (optional=templinst)_ZZN9QMetaType23registerMutableViewImplISt6vectorI7QStringSaIS2_EE9QIterableI13QMetaSequenceEEEbSt8functionIFbPvS9_EES_S_E10unregister@Qt_6 6.6.0
 (optional=templinst)_ZZN9QMetaType23registerMutableViewImplISt6vectorIbSaIbEE9QIterableI13QMetaSequenceEEEbSt8functionIFbPvS8_EES_S_E10unregister@Qt_6 6.6.0
 (optional=templinst)_ZZN9QMetaType23registerMutableViewImplISt6vectorIdSaIdEE9QIterableI13QMetaSequenceEEEbSt8functionIFbPvS8_EES_S_E10unregister@Qt_6 6.6.0
 (optional=templinst)_ZZN9QMetaType23registerMutableViewImplISt6vectorIfSaIfEE9QIterableI13QMetaSequenceEEEbSt8functionIFbPvS8_EES_S_E10unregister@Qt_6 6.6.0
 (optional=templinst)_ZZN9QMetaType23registerMutableViewImplISt6vectorIiSaIiEE9QIterableI13QMetaSequenceEEEbSt8functionIFbPvS8_EES_S_E10unregister@Qt_6 6.6.0
 _ZZNSt19_Sp_make_shared_tag5_S_tiEvE5__tag@Qt_6 6.6.0
 _ZeqRK9QQmlErrorS1_@Qt_6 6.6.0
 _Zls6QDebugRK9QQmlError@Qt_6 6.6.0
 _ZlsR11QDataStreamRK8QJSValue@Qt_6 6.6.0
 _ZrsR11QDataStreamR8QJSValue@Qt_6 6.6.0
 (c++)"non-virtual thunk to QQmlEngineExtensionPlugin::initializeEngine(QQmlEngine*, char const*)@Qt_6" 6.6.0
 (c++)"non-virtual thunk to QQmlEngineExtensionPlugin::~QQmlEngineExtensionPlugin()@Qt_6" 6.6.0
 (c++)"non-virtual thunk to QQmlExtensionPlugin::initializeEngine(QQmlEngine*, char const*)@Qt_6" 6.6.0
 (c++)"non-virtual thunk to QQmlExtensionPlugin::~QQmlExtensionPlugin()@Qt_6" 6.6.0
 qtDeclarativeHookData@Qt_6 6.6.0
 qt_v4DebuggerHook@Qt_6 6.6.0
 qt_v4ResolvePendingBreakpointsHook@Qt_6 6.6.0
 qt_v4StackTrace@Qt_6 6.6.0
 qt_v4StackTraceForEngine@Qt_6 6.6.0
 qt_v4TriggeredBreakpointHook@Qt_6 6.6.0
